; ============================================================
; Z80 Disassembly of BorderTr.tap
; ============================================================
; Total blocks: 4

; === Block 0/1: Program "BorderTrix" ===
; Auto-start line: 10
; Data length: 75 bytes
; (BASIC program — not disassembled)

; === Block 2/3: Code "BorderTrix" ===
; Load address: 0xBFCE
; Length: 8192 bytes

BFCE: 18 05            JR 0xBFD5
BFD0: F3               DI
BFD1: ED 56            IM 1
BFD3: FB               EI
BFD4: C9               RET
BFD5: F3               DI
BFD6: F5               PUSH AF
BFD7: C5               PUSH BC
BFD8: D5               PUSH DE
BFD9: E5               PUSH HL
BFDA: 21 F4 FF         LD HL, 0xFFF4
BFDD: 36 C3            LD (HL), 0xC3
BFDF: 23               INC HL
BFE0: 36 00            LD (HL), 0x00
BFE2: 23               INC HL
BFE3: 36 C0            LD (HL), 0xC0
BFE5: 2E FF            LD L, 0xFF
BFE7: 36 18            LD (HL), 0x18
BFE9: 3E 3B            LD A, 0x3B
BFEB: ED 47            LD I, A
BFED: 21 CE C4         LD HL, 0xC4CE
BFF0: 11 00 40         LD DE, 0x4000
BFF3: 01 00 1B         LD BC, 0x1B00
BFF6: ED B0            LDIR
BFF8: E1               POP HL
BFF9: D1               POP DE
BFFA: C1               POP BC
BFFB: F1               POP AF
BFFC: ED 5E            IM 2
BFFE: FB               EI
BFFF: C9               RET
C000: F5               PUSH AF
C001: C5               PUSH BC
C002: D5               PUSH DE
C003: E5               PUSH HL
C004: 21 51 01         LD HL, 0x0151
C007: F5               PUSH AF
C008: F1               POP AF
C009: 00               NOP
C00A: 00               NOP
C00B: 2B               DEC HL
C00C: 7C               LD A, H
C00D: B5               OR L
C00E: 20 FB            JR NZ, 0xC00B
C010: 3E 07            LD A, 0x07
C012: 01 FE 02         LD BC, 0x02FE
C015: 11 04 06         LD DE, 0x0604
C018: 21 00 05         LD HL, 0x0500
C01B: CD 03 C1         CALL 0xC103
C01E: CD DE C0         CALL 0xC0DE
C021: CD DE C0         CALL 0xC0DE
C024: CD DE C0         CALL 0xC0DE
C027: CD 28 C1         CALL 0xC128
C02A: CD 28 C1         CALL 0xC128
C02D: CD 28 C1         CALL 0xC128
C030: CD 28 C1         CALL 0xC128
C033: CD 72 C1         CALL 0xC172
C036: CD 4D C1         CALL 0xC14D
C039: CD 4D C1         CALL 0xC14D
C03C: CD 4D C1         CALL 0xC14D
C03F: CD 28 C1         CALL 0xC128
C042: CD 28 C1         CALL 0xC128
C045: CD 28 C1         CALL 0xC128
C048: CD 28 C1         CALL 0xC128
C04B: CD BC C1         CALL 0xC1BC
C04E: CD E1 C1         CALL 0xC1E1
C051: CD 06 C2         CALL 0xC206
C054: CD 97 C1         CALL 0xC197
C057: 00               NOP
C058: 00               NOP
C059: 00               NOP
C05A: 00               NOP
C05B: 00               NOP
C05C: 00               NOP
C05D: 00               NOP
C05E: 21 27 00         LD HL, 0x0027
C061: CD 2E C3         CALL 0xC32E
C064: 21 0E 00         LD HL, 0x000E
C067: CD 2E C3         CALL 0xC32E
C06A: 21 0E 00         LD HL, 0x000E
C06D: CD 2E C3         CALL 0xC32E
C070: 21 20 00         LD HL, 0x0020
C073: CD C8 C4         CALL 0xC4C8
C076: 21 00 05         LD HL, 0x0500
C079: 3E 07            LD A, 0x07
C07B: ED 4F            LD R, A
C07D: CD 50 C2         CALL 0xC250
C080: CD 2B C2         CALL 0xC22B
C083: CD 2B C2         CALL 0xC22B
C086: CD 2B C2         CALL 0xC22B
C089: CD 75 C2         CALL 0xC275
C08C: CD 75 C2         CALL 0xC275
C08F: CD 75 C2         CALL 0xC275
C092: CD 75 C2         CALL 0xC275
C095: CD BF C2         CALL 0xC2BF
C098: CD 9A C2         CALL 0xC29A
C09B: CD 9A C2         CALL 0xC29A
C09E: CD 9A C2         CALL 0xC29A
C0A1: CD E4 C2         CALL 0xC2E4
C0A4: CD E4 C2         CALL 0xC2E4
C0A7: CD E4 C2         CALL 0xC2E4
C0AA: CD E4 C2         CALL 0xC2E4
C0AD: CD 09 C3         CALL 0xC309
C0B0: CD 2B C2         CALL 0xC22B
C0B3: CD 2B C2         CALL 0xC22B
C0B6: 32 FE FF         LD (0xFFFE), A
C0B9: 00               NOP
C0BA: 00               NOP
C0BB: ED 61            OUT (C), H
C0BD: ED 61            OUT (C), H
C0BF: ED 61            OUT (C), H
C0C1: ED 69            OUT (C), L
C0C3: ED 59            OUT (C), E
C0C5: ED 59            OUT (C), E
C0C7: ED 59            OUT (C), E
C0C9: ED 69            OUT (C), L
C0CB: ED 51            OUT (C), D
C0CD: ED 69            OUT (C), L
C0CF: ED 41            OUT (C), B
C0D1: ED 41            OUT (C), B
C0D3: ED 41            OUT (C), B
C0D5: ED 69            OUT (C), L
C0D7: E1               POP HL
C0D8: D1               POP DE
C0D9: C1               POP BC
C0DA: F1               POP AF
C0DB: C3 38 00         JP 0x0038
C0DE: 00               NOP
C0DF: ED 41            OUT (C), B
C0E1: ED 41            OUT (C), B
C0E3: ED 69            OUT (C), L
C0E5: ED 51            OUT (C), D
C0E7: ED 69            OUT (C), L
C0E9: ED 51            OUT (C), D
C0EB: ED 69            OUT (C), L
C0ED: ED 59            OUT (C), E
C0EF: ED 59            OUT (C), E
C0F1: ED 69            OUT (C), L
C0F3: ED 61            OUT (C), H
C0F5: ED 69            OUT (C), L
C0F7: ED 61            OUT (C), H
C0F9: ED 69            OUT (C), L
C0FB: 00               NOP
C0FC: 3E 07            LD A, 0x07
C0FE: 3E 07            LD A, 0x07
C100: 3E 07            LD A, 0x07
C102: C9               RET
C103: 00               NOP
C104: ED 79            OUT (C), A
C106: ED 79            OUT (C), A
C108: ED 69            OUT (C), L
C10A: ED 79            OUT (C), A
C10C: ED 69            OUT (C), L
C10E: ED 79            OUT (C), A
C110: ED 69            OUT (C), L
C112: ED 79            OUT (C), A
C114: ED 79            OUT (C), A
C116: ED 69            OUT (C), L
C118: ED 79            OUT (C), A
C11A: ED 69            OUT (C), L
C11C: ED 79            OUT (C), A
C11E: ED 69            OUT (C), L
C120: 00               NOP
C121: 3E 07            LD A, 0x07
C123: 3E 07            LD A, 0x07
C125: 3E 07            LD A, 0x07
C127: C9               RET
C128: 00               NOP
C129: ED 41            OUT (C), B
C12B: ED 69            OUT (C), L
C12D: ED 69            OUT (C), L
C12F: ED 51            OUT (C), D
C131: ED 69            OUT (C), L
C133: ED 51            OUT (C), D
C135: ED 69            OUT (C), L
C137: ED 59            OUT (C), E
C139: ED 69            OUT (C), L
C13B: ED 69            OUT (C), L
C13D: ED 61            OUT (C), H
C13F: ED 69            OUT (C), L
C141: ED 61            OUT (C), H
C143: ED 69            OUT (C), L
C145: 00               NOP
C146: 3E 07            LD A, 0x07
C148: 3E 07            LD A, 0x07
C14A: 3E 07            LD A, 0x07
C14C: C9               RET
C14D: 00               NOP
C14E: ED 41            OUT (C), B
C150: ED 69            OUT (C), L
C152: ED 69            OUT (C), L
C154: ED 51            OUT (C), D
C156: ED 51            OUT (C), D
C158: ED 51            OUT (C), D
C15A: ED 69            OUT (C), L
C15C: ED 59            OUT (C), E
C15E: ED 59            OUT (C), E
C160: ED 69            OUT (C), L
C162: ED 61            OUT (C), H
C164: ED 69            OUT (C), L
C166: ED 61            OUT (C), H
C168: ED 69            OUT (C), L
C16A: 00               NOP
C16B: 3E 07            LD A, 0x07
C16D: 3E 07            LD A, 0x07
C16F: 3E 07            LD A, 0x07
C171: C9               RET
C172: 00               NOP
C173: ED 41            OUT (C), B
C175: ED 69            OUT (C), L
C177: ED 69            OUT (C), L
C179: ED 51            OUT (C), D
C17B: ED 79            OUT (C), A
C17D: ED 51            OUT (C), D
C17F: ED 69            OUT (C), L
C181: ED 59            OUT (C), E
C183: ED 79            OUT (C), A
C185: ED 69            OUT (C), L
C187: ED 61            OUT (C), H
C189: ED 69            OUT (C), L
C18B: ED 61            OUT (C), H
C18D: ED 69            OUT (C), L
C18F: 00               NOP
C190: 3E 07            LD A, 0x07
C192: 3E 07            LD A, 0x07
C194: 3E 07            LD A, 0x07
C196: C9               RET
C197: 00               NOP
C198: ED 41            OUT (C), B
C19A: ED 41            OUT (C), B
C19C: ED 69            OUT (C), L
C19E: ED 51            OUT (C), D
C1A0: ED 69            OUT (C), L
C1A2: ED 51            OUT (C), D
C1A4: ED 69            OUT (C), L
C1A6: ED 59            OUT (C), E
C1A8: ED 59            OUT (C), E
C1AA: ED 69            OUT (C), L
C1AC: ED 61            OUT (C), H
C1AE: ED 61            OUT (C), H
C1B0: ED 69            OUT (C), L
C1B2: ED 69            OUT (C), L
C1B4: 00               NOP
C1B5: 3E 07            LD A, 0x07
C1B7: 3E 07            LD A, 0x07
C1B9: 3E 07            LD A, 0x07
C1BB: C9               RET
C1BC: 00               NOP
C1BD: ED 41            OUT (C), B
C1BF: ED 79            OUT (C), A
C1C1: ED 69            OUT (C), L
C1C3: ED 51            OUT (C), D
C1C5: ED 69            OUT (C), L
C1C7: ED 51            OUT (C), D
C1C9: ED 69            OUT (C), L
C1CB: ED 59            OUT (C), E
C1CD: ED 79            OUT (C), A
C1CF: ED 69            OUT (C), L
C1D1: ED 61            OUT (C), H
C1D3: ED 79            OUT (C), A
C1D5: ED 61            OUT (C), H
C1D7: ED 69            OUT (C), L
C1D9: 00               NOP
C1DA: 3E 07            LD A, 0x07
C1DC: 3E 07            LD A, 0x07
C1DE: 3E 07            LD A, 0x07
C1E0: C9               RET
C1E1: 00               NOP
C1E2: ED 41            OUT (C), B
C1E4: ED 41            OUT (C), B
C1E6: ED 69            OUT (C), L
C1E8: ED 51            OUT (C), D
C1EA: ED 69            OUT (C), L
C1EC: ED 51            OUT (C), D
C1EE: ED 69            OUT (C), L
C1F0: ED 59            OUT (C), E
C1F2: ED 59            OUT (C), E
C1F4: ED 69            OUT (C), L
C1F6: ED 61            OUT (C), H
C1F8: ED 61            OUT (C), H
C1FA: 00               NOP
C1FB: 00               NOP
C1FC: ED 69            OUT (C), L
C1FE: ED 69            OUT (C), L
C200: 3E 07            LD A, 0x07
C202: 21 00 05         LD HL, 0x0500
C205: C9               RET
C206: 00               NOP
C207: ED 41            OUT (C), B
C209: ED 41            OUT (C), B
C20B: ED 69            OUT (C), L
C20D: ED 51            OUT (C), D
C20F: ED 69            OUT (C), L
C211: ED 51            OUT (C), D
C213: ED 69            OUT (C), L
C215: ED 59            OUT (C), E
C217: ED 59            OUT (C), E
C219: ED 69            OUT (C), L
C21B: ED 61            OUT (C), H
C21D: ED 61            OUT (C), H
C21F: 00               NOP
C220: ED 69            OUT (C), L
C222: ED 69            OUT (C), L
C224: 3E 07            LD A, 0x07
C226: 3E 07            LD A, 0x07
C228: 3E 07            LD A, 0x07
C22A: C9               RET
C22B: 00               NOP
C22C: ED 61            OUT (C), H
C22E: ED 61            OUT (C), H
C230: ED 61            OUT (C), H
C232: ED 69            OUT (C), L
C234: ED 59            OUT (C), E
C236: ED 59            OUT (C), E
C238: ED 59            OUT (C), E
C23A: ED 69            OUT (C), L
C23C: ED 51            OUT (C), D
C23E: ED 69            OUT (C), L
C240: ED 41            OUT (C), B
C242: ED 41            OUT (C), B
C244: ED 41            OUT (C), B
C246: ED 69            OUT (C), L
C248: 00               NOP
C249: 3E 07            LD A, 0x07
C24B: 3E 07            LD A, 0x07
C24D: 3E 07            LD A, 0x07
C24F: C9               RET
C250: 00               NOP
C251: ED 79            OUT (C), A
C253: ED 79            OUT (C), A
C255: ED 79            OUT (C), A
C257: ED 69            OUT (C), L
C259: ED 79            OUT (C), A
C25B: ED 79            OUT (C), A
C25D: ED 79            OUT (C), A
C25F: ED 69            OUT (C), L
C261: ED 79            OUT (C), A
C263: ED 69            OUT (C), L
C265: ED 79            OUT (C), A
C267: ED 79            OUT (C), A
C269: ED 79            OUT (C), A
C26B: ED 69            OUT (C), L
C26D: 00               NOP
C26E: 3E 07            LD A, 0x07
C270: 3E 07            LD A, 0x07
C272: 3E 07            LD A, 0x07
C274: C9               RET
C275: 00               NOP
C276: ED 69            OUT (C), L
C278: ED 69            OUT (C), L
C27A: ED 61            OUT (C), H
C27C: ED 69            OUT (C), L
C27E: ED 59            OUT (C), E
C280: ED 69            OUT (C), L
C282: ED 59            OUT (C), E
C284: ED 69            OUT (C), L
C286: ED 51            OUT (C), D
C288: ED 69            OUT (C), L
C28A: ED 69            OUT (C), L
C28C: ED 69            OUT (C), L
C28E: ED 41            OUT (C), B
C290: ED 69            OUT (C), L
C292: 00               NOP
C293: 3E 07            LD A, 0x07
C295: 3E 07            LD A, 0x07
C297: 3E 07            LD A, 0x07
C299: C9               RET
C29A: 00               NOP
C29B: ED 61            OUT (C), H
C29D: ED 61            OUT (C), H
C29F: ED 61            OUT (C), H
C2A1: ED 69            OUT (C), L
C2A3: ED 59            OUT (C), E
C2A5: ED 69            OUT (C), L
C2A7: ED 59            OUT (C), E
C2A9: ED 69            OUT (C), L
C2AB: ED 51            OUT (C), D
C2AD: ED 69            OUT (C), L
C2AF: ED 41            OUT (C), B
C2B1: ED 41            OUT (C), B
C2B3: ED 41            OUT (C), B
C2B5: ED 69            OUT (C), L
C2B7: 00               NOP
C2B8: 3E 07            LD A, 0x07
C2BA: 3E 07            LD A, 0x07
C2BC: 3E 07            LD A, 0x07
C2BE: C9               RET
C2BF: 00               NOP
C2C0: ED 79            OUT (C), A
C2C2: ED 79            OUT (C), A
C2C4: ED 61            OUT (C), H
C2C6: ED 69            OUT (C), L
C2C8: ED 59            OUT (C), E
C2CA: ED 69            OUT (C), L
C2CC: ED 59            OUT (C), E
C2CE: ED 69            OUT (C), L
C2D0: ED 51            OUT (C), D
C2D2: ED 69            OUT (C), L
C2D4: ED 79            OUT (C), A
C2D6: ED 79            OUT (C), A
C2D8: ED 41            OUT (C), B
C2DA: ED 69            OUT (C), L
C2DC: 00               NOP
C2DD: 3E 07            LD A, 0x07
C2DF: 3E 07            LD A, 0x07
C2E1: 3E 07            LD A, 0x07
C2E3: C9               RET
C2E4: 00               NOP
C2E5: ED 61            OUT (C), H
C2E7: ED 69            OUT (C), L
C2E9: ED 69            OUT (C), L
C2EB: ED 69            OUT (C), L
C2ED: ED 59            OUT (C), E
C2EF: ED 69            OUT (C), L
C2F1: ED 59            OUT (C), E
C2F3: ED 69            OUT (C), L
C2F5: ED 51            OUT (C), D
C2F7: ED 69            OUT (C), L
C2F9: ED 41            OUT (C), B
C2FB: ED 69            OUT (C), L
C2FD: ED 69            OUT (C), L
C2FF: ED 69            OUT (C), L
C301: 00               NOP
C302: 3E 07            LD A, 0x07
C304: 3E 07            LD A, 0x07
C306: 3E 07            LD A, 0x07
C308: C9               RET
C309: 00               NOP
C30A: ED 61            OUT (C), H
C30C: ED 79            OUT (C), A
C30E: ED 79            OUT (C), A
C310: ED 69            OUT (C), L
C312: ED 59            OUT (C), E
C314: ED 79            OUT (C), A
C316: ED 59            OUT (C), E
C318: ED 69            OUT (C), L
C31A: ED 51            OUT (C), D
C31C: ED 69            OUT (C), L
C31E: ED 41            OUT (C), B
C320: ED 79            OUT (C), A
C322: ED 79            OUT (C), A
C324: ED 69            OUT (C), L
C326: 00               NOP
C327: 3E 07            LD A, 0x07
C329: 3E 07            LD A, 0x07
C32B: 3E 07            LD A, 0x07
C32D: C9               RET
C32E: CD C8 C4         CALL 0xC4C8
C331: 3E 07            LD A, 0x07
C333: ED 79            OUT (C), A
C335: 21 07 00         LD HL, 0x0007
C338: CD C8 C4         CALL 0xC4C8
C33B: 3E 00            LD A, 0x00
C33D: ED 79            OUT (C), A
C33F: 21 0F 00         LD HL, 0x000F
C342: CD C8 C4         CALL 0xC4C8
C345: 3E 07            LD A, 0x07
C347: ED 79            OUT (C), A
C349: 21 10 00         LD HL, 0x0010
C34C: CD C8 C4         CALL 0xC4C8
C34F: 3E 00            LD A, 0x00
C351: ED 79            OUT (C), A
C353: 21 06 00         LD HL, 0x0006
C356: CD C8 C4         CALL 0xC4C8
C359: 3E 07            LD A, 0x07
C35B: ED 79            OUT (C), A
C35D: 21 0F 00         LD HL, 0x000F
C360: CD C8 C4         CALL 0xC4C8
C363: 3E 05            LD A, 0x05
C365: ED 79            OUT (C), A
C367: 21 07 00         LD HL, 0x0007
C36A: CD C8 C4         CALL 0xC4C8
C36D: 3E 07            LD A, 0x07
C36F: ED 79            OUT (C), A
C371: 21 0F 00         LD HL, 0x000F
C374: CD C8 C4         CALL 0xC4C8
C377: 3E 05            LD A, 0x05
C379: ED 79            OUT (C), A
C37B: 21 0F 00         LD HL, 0x000F
C37E: 00               NOP
C37F: 00               NOP
C380: CD C8 C4         CALL 0xC4C8
C383: 3E 07            LD A, 0x07
C385: ED 79            OUT (C), A
C387: 21 07 00         LD HL, 0x0007
C38A: CD C8 C4         CALL 0xC4C8
C38D: 3E 05            LD A, 0x05
C38F: ED 79            OUT (C), A
C391: 21 0F 00         LD HL, 0x000F
C394: 00               NOP
C395: CD C8 C4         CALL 0xC4C8
C398: 3E 04            LD A, 0x04
C39A: ED 79            OUT (C), A
C39C: 21 07 00         LD HL, 0x0007
C39F: CD C8 C4         CALL 0xC4C8
C3A2: 3E 05            LD A, 0x05
C3A4: ED 79            OUT (C), A
C3A6: 21 0E 00         LD HL, 0x000E
C3A9: CD C8 C4         CALL 0xC4C8
C3AC: 3E 04            LD A, 0x04
C3AE: ED 79            OUT (C), A
C3B0: 21 10 00         LD HL, 0x0010
C3B3: CD C8 C4         CALL 0xC4C8
C3B6: 3E 05            LD A, 0x05
C3B8: ED 79            OUT (C), A
C3BA: 21 06 00         LD HL, 0x0006
C3BD: CD C8 C4         CALL 0xC4C8
C3C0: 3E 04            LD A, 0x04
C3C2: ED 79            OUT (C), A
C3C4: 21 10 00         LD HL, 0x0010
C3C7: CD C8 C4         CALL 0xC4C8
C3CA: 3E 06            LD A, 0x06
C3CC: ED 79            OUT (C), A
C3CE: 21 07 00         LD HL, 0x0007
C3D1: CD C8 C4         CALL 0xC4C8
C3D4: 3E 04            LD A, 0x04
C3D6: ED 79            OUT (C), A
C3D8: 21 0F 00         LD HL, 0x000F
C3DB: CD C8 C4         CALL 0xC4C8
C3DE: 3E 06            LD A, 0x06
C3E0: ED 79            OUT (C), A
C3E2: 21 0F 00         LD HL, 0x000F
C3E5: 00               NOP
C3E6: 00               NOP
C3E7: CD C8 C4         CALL 0xC4C8
C3EA: 3E 04            LD A, 0x04
C3EC: ED 79            OUT (C), A
C3EE: 21 07 00         LD HL, 0x0007
C3F1: CD C8 C4         CALL 0xC4C8
C3F4: 3E 06            LD A, 0x06
C3F6: ED 79            OUT (C), A
C3F8: 21 0F 00         LD HL, 0x000F
C3FB: 00               NOP
C3FC: 00               NOP
C3FD: 00               NOP
C3FE: CD C8 C4         CALL 0xC4C8
C401: 3E 02            LD A, 0x02
C403: ED 79            OUT (C), A
C405: 21 07 00         LD HL, 0x0007
C408: CD C8 C4         CALL 0xC4C8
C40B: 3E 06            LD A, 0x06
C40D: ED 79            OUT (C), A
C40F: 21 0E 00         LD HL, 0x000E
C412: CD C8 C4         CALL 0xC4C8
C415: 3E 02            LD A, 0x02
C417: ED 79            OUT (C), A
C419: 21 10 00         LD HL, 0x0010
C41C: CD C8 C4         CALL 0xC4C8
C41F: 3E 06            LD A, 0x06
C421: ED 79            OUT (C), A
C423: 21 06 00         LD HL, 0x0006
C426: CD C8 C4         CALL 0xC4C8
C429: 3E 02            LD A, 0x02
C42B: ED 79            OUT (C), A
C42D: 21 0F 00         LD HL, 0x000F
C430: CD C8 C4         CALL 0xC4C8
C433: 3E 03            LD A, 0x03
C435: ED 79            OUT (C), A
C437: 21 07 00         LD HL, 0x0007
C43A: CD C8 C4         CALL 0xC4C8
C43D: 3E 02            LD A, 0x02
C43F: ED 79            OUT (C), A
C441: 21 0F 00         LD HL, 0x000F
C444: CD C8 C4         CALL 0xC4C8
C447: 3E 03            LD A, 0x03
C449: ED 79            OUT (C), A
C44B: 21 0F 00         LD HL, 0x000F
C44E: 00               NOP
C44F: 00               NOP
C450: CD C8 C4         CALL 0xC4C8
C453: 3E 02            LD A, 0x02
C455: ED 79            OUT (C), A
C457: 21 07 00         LD HL, 0x0007
C45A: CD C8 C4         CALL 0xC4C8
C45D: 3E 03            LD A, 0x03
C45F: ED 79            OUT (C), A
C461: 21 10 00         LD HL, 0x0010
C464: CD C8 C4         CALL 0xC4C8
C467: 3E 01            LD A, 0x01
C469: ED 79            OUT (C), A
C46B: 21 07 00         LD HL, 0x0007
C46E: CD C8 C4         CALL 0xC4C8
C471: 3E 03            LD A, 0x03
C473: ED 79            OUT (C), A
C475: 21 0E 00         LD HL, 0x000E
C478: CD C8 C4         CALL 0xC4C8
C47B: 3E 01            LD A, 0x01
C47D: ED 79            OUT (C), A
C47F: 21 10 00         LD HL, 0x0010
C482: CD C8 C4         CALL 0xC4C8
C485: 3E 03            LD A, 0x03
C487: ED 79            OUT (C), A
C489: 21 06 00         LD HL, 0x0006
C48C: CD C8 C4         CALL 0xC4C8
C48F: 3E 01            LD A, 0x01
C491: ED 79            OUT (C), A
C493: 21 0F 00         LD HL, 0x000F
C496: CD C8 C4         CALL 0xC4C8
C499: 3E 00            LD A, 0x00
C49B: ED 79            OUT (C), A
C49D: 21 07 00         LD HL, 0x0007
C4A0: CD C8 C4         CALL 0xC4C8
C4A3: 3E 01            LD A, 0x01
C4A5: ED 79            OUT (C), A
C4A7: 21 0F 00         LD HL, 0x000F
C4AA: CD C8 C4         CALL 0xC4C8
C4AD: 3E 00            LD A, 0x00
C4AF: ED 79            OUT (C), A
C4B1: 21 0F 00         LD HL, 0x000F
C4B4: 00               NOP
C4B5: 00               NOP
C4B6: CD C8 C4         CALL 0xC4C8
C4B9: 3E 01            LD A, 0x01
C4BB: ED 79            OUT (C), A
C4BD: 21 07 00         LD HL, 0x0007
C4C0: CD C8 C4         CALL 0xC4C8
C4C3: AF               XOR A
C4C4: ED 79            OUT (C), A
C4C6: 00               NOP
C4C7: C9               RET
C4C8: 2B               DEC HL
C4C9: 7C               LD A, H
C4CA: B5               OR L
C4CB: 20 FB            JR NZ, 0xC4C8
C4CD: C9               RET
C4CE: 87               ADD A, A
C4CF: 18 61            JR 0xC532
C4D1: 82               ADD A, D
C4D2: 1F               RRA
C4D3: FF               RST 0x38
C4D4: FF               RST 0x38
C4D5: FF               RST 0x38
C4D6: 00               NOP
C4D7: FF               RST 0x38
C4D8: 80               ADD A, B
C4D9: 00               NOP
C4DA: 00               NOP
C4DB: 03               INC BC
C4DC: 00               NOP
C4DD: 00               NOP
C4DE: FF               RST 0x38
C4DF: 00               NOP
C4E0: 00               NOP
C4E1: 00               NOP
C4E2: 00               NOP
C4E3: 00               NOP
C4E4: 00               NOP
C4E5: 00               NOP
C4E6: 00               NOP
C4E7: FF               RST 0x38
C4E8: FF               RST 0x38
C4E9: FF               RST 0x38
C4EA: FF               RST 0x38
C4EB: FF               RST 0x38
C4EC: FF               RST 0x38
C4ED: FF               RST 0x38
C4EE: 00               NOP
C4EF: 00               NOP
C4F0: 00               NOP
C4F1: 00               NOP
C4F2: 00               NOP
C4F3: 00               NOP
C4F4: FF               RST 0x38
C4F5: E0               RET PO
C4F6: 00               NOP
C4F7: 00               NOP
C4F8: 00               NOP
C4F9: 00               NOP
C4FA: 00               NOP
C4FB: 00               NOP
C4FC: 00               NOP
C4FD: 0F               RRCA
C4FE: 00               NOP
C4FF: 00               NOP
C500: 00               NOP
C501: 00               NOP
C502: 00               NOP
C503: 00               NOP
C504: 00               NOP
C505: 00               NOP
C506: 00               NOP
C507: FF               RST 0x38
C508: 00               NOP
C509: 00               NOP
C50A: 00               NOP
C50B: 00               NOP
C50C: 00               NOP
C50D: 00               NOP
C50E: 00               NOP
C50F: 00               NOP
C510: 00               NOP
C511: 00               NOP
C512: 00               NOP
C513: FE 00            CP 0x00
C515: 00               NOP
C516: 3F               CCF
C517: FF               RST 0x38
C518: FF               RST 0x38
C519: FF               RST 0x38
C51A: FF               RST 0x38
C51B: FF               RST 0x38
C51C: C0               RET NZ
C51D: 00               NOP
C51E: FF               RST 0x38
C51F: 00               NOP
C520: 00               NOP
C521: 00               NOP
C522: 00               NOP
C523: 00               NOP
C524: 00               NOP
C525: 00               NOP
C526: 00               NOP
C527: 00               NOP
C528: 00               NOP
C529: FF               RST 0x38
C52A: 00               NOP
C52B: 00               NOP
C52C: 00               NOP
C52D: 00               NOP
C52E: FF               RST 0x38
C52F: FF               RST 0x38
C530: FF               RST 0x38
C531: FF               RST 0x38
C532: 00               NOP
C533: 80               ADD A, B
C534: 1F               RRA
C535: FF               RST 0x38
C536: FF               RST 0x38
C537: FF               RST 0x38
C538: 00               NOP
C539: 00               NOP
C53A: 00               NOP
C53B: FF               RST 0x38
C53C: FF               RST 0x38
C53D: E0               RET PO
C53E: 80               ADD A, B
C53F: 00               NOP
C540: 00               NOP
C541: 00               NOP
C542: 00               NOP
C543: 00               NOP
C544: 00               NOP
C545: 00               NOP
C546: 00               NOP
C547: 00               NOP
C548: 00               NOP
C549: 00               NOP
C54A: 00               NOP
C54B: FF               RST 0x38
C54C: FF               RST 0x38
C54D: FF               RST 0x38
C54E: 00               NOP
C54F: 00               NOP
C550: 00               NOP
C551: FF               RST 0x38
C552: 00               NOP
C553: 0F               RRCA
C554: FF               RST 0x38
C555: F0               RET P
C556: 00               NOP
C557: 00               NOP
C558: 00               NOP
C559: 00               NOP
C55A: 00               NOP
C55B: 00               NOP
C55C: 3F               CCF
C55D: FC 07 00         CALL M, 0x0007
C560: 00               NOP
C561: 00               NOP
C562: 00               NOP
C563: 00               NOP
C564: 00               NOP
C565: 00               NOP
C566: 00               NOP
C567: 00               NOP
C568: 00               NOP
C569: 00               NOP
C56A: 00               NOP
C56B: 00               NOP
C56C: 00               NOP
C56D: 00               NOP
C56E: FF               RST 0x38
C56F: FF               RST 0x38
C570: 00               NOP
C571: E0               RET PO
C572: 1F               RRA
C573: FF               RST 0x38
C574: 00               NOP
C575: 00               NOP
C576: 00               NOP
C577: 00               NOP
C578: FF               RST 0x38
C579: FF               RST 0x38
C57A: 00               NOP
C57B: 00               NOP
C57C: 00               NOP
C57D: FF               RST 0x38
C57E: C3 01 E0         JP 0xE001
C581: 01 FF FF         LD BC, 0xFFFF
C584: FF               RST 0x38
C585: FF               RST 0x38
C586: FC 00 03         CALL M, 0x0300
C589: F8               RET M
C58A: 00               NOP
C58B: 00               NOP
C58C: FF               RST 0x38
C58D: FF               RST 0x38
C58E: 00               NOP
C58F: 00               NOP
C590: F8               RET M
C591: 01 FF 00         LD BC, 0x00FF
C594: 00               NOP
C595: 00               NOP
C596: FF               RST 0x38
C597: E0               RET PO
C598: 00               NOP
C599: 00               NOP
C59A: 0F               RRCA
C59B: FF               RST 0x38
C59C: 00               NOP
C59D: 00               NOP
C59E: E1               POP HL
C59F: 00               NOP
C5A0: 00               NOP
C5A1: 7F               LD A, A
C5A2: FC FF FF         CALL M, 0xFFFF
C5A5: 00               NOP
C5A6: FF               RST 0x38
C5A7: FF               RST 0x38
C5A8: 00               NOP
C5A9: 00               NOP
C5AA: 00               NOP
C5AB: 00               NOP
C5AC: 00               NOP
C5AD: 00               NOP
C5AE: 00               NOP
C5AF: FF               RST 0x38
C5B0: 80               ADD A, B
C5B1: 3F               CCF
C5B2: F8               RET M
C5B3: 00               NOP
C5B4: 00               NOP
C5B5: 01 07 FF         LD BC, 0xFF07
C5B8: FF               RST 0x38
C5B9: FF               RST 0x38
C5BA: FF               RST 0x38
C5BB: C3 00 00         JP 0x0000
C5BE: F0               RET P
C5BF: 00               NOP
C5C0: 00               NOP
C5C1: FC 1F 00         CALL M, 0x001F
C5C4: 00               NOP
C5C5: 00               NOP
C5C6: 0F               RRCA
C5C7: 0F               RRCA
C5C8: FC 00 00         CALL M, 0x0000
C5CB: 00               NOP
C5CC: FF               RST 0x38
C5CD: 00               NOP
C5CE: BA               CP D
C5CF: EB               EX DE, HL
C5D0: AE               XOR (HL)
C5D1: BE               CP (HL)
C5D2: E8               RET PE
C5D3: 00               NOP
C5D4: 00               NOP
C5D5: 00               NOP
C5D6: FF               RST 0x38
C5D7: 7F               LD A, A
C5D8: FF               RST 0x38
C5D9: FF               RST 0x38
C5DA: FF               RST 0x38
C5DB: FF               RST 0x38
C5DC: 07               RLCA
C5DD: FF               RST 0x38
C5DE: 00               NOP
C5DF: FF               RST 0x38
C5E0: 00               NOP
C5E1: 00               NOP
C5E2: 00               NOP
C5E3: 00               NOP
C5E4: 00               NOP
C5E5: FF               RST 0x38
C5E6: FF               RST 0x38
C5E7: 00               NOP
C5E8: 00               NOP
C5E9: 00               NOP
C5EA: 00               NOP
C5EB: 00               NOP
C5EC: 00               NOP
C5ED: 00               NOP
C5EE: FF               RST 0x38
C5EF: FF               RST 0x38
C5F0: FF               RST 0x38
C5F1: FF               RST 0x38
C5F2: FF               RST 0x38
C5F3: FF               RST 0x38
C5F4: 00               NOP
C5F5: 0F               RRCA
C5F6: FF               RST 0x38
C5F7: FF               RST 0x38
C5F8: FF               RST 0x38
C5F9: FF               RST 0x38
C5FA: FF               RST 0x38
C5FB: FF               RST 0x38
C5FC: FF               RST 0x38
C5FD: C0               RET NZ
C5FE: FF               RST 0x38
C5FF: F8               RET M
C600: 00               NOP
C601: 00               NOP
C602: 00               NOP
C603: 00               NOP
C604: 00               NOP
C605: 00               NOP
C606: 07               RLCA
C607: 00               NOP
C608: FF               RST 0x38
C609: FF               RST 0x38
C60A: FF               RST 0x38
C60B: FF               RST 0x38
C60C: FF               RST 0x38
C60D: FF               RST 0x38
C60E: FF               RST 0x38
C60F: FF               RST 0x38
C610: FF               RST 0x38
C611: FF               RST 0x38
C612: FF               RST 0x38
C613: 00               NOP
C614: 7F               LD A, A
C615: FF               RST 0x38
C616: FF               RST 0x38
C617: FF               RST 0x38
C618: 80               ADD A, B
C619: 00               NOP
C61A: 0F               RRCA
C61B: FF               RST 0x38
C61C: FF               RST 0x38
C61D: FE 00            CP 0x00
C61F: E0               RET PO
C620: 00               NOP
C621: 00               NOP
C622: 00               NOP
C623: 00               NOP
C624: 00               NOP
C625: 00               NOP
C626: 00               NOP
C627: 00               NOP
C628: FF               RST 0x38
C629: 00               NOP
C62A: FF               RST 0x38
C62B: FF               RST 0x38
C62C: FF               RST 0x38
C62D: FF               RST 0x38
C62E: 00               NOP
C62F: 00               NOP
C630: 00               NOP
C631: 00               NOP
C632: F8               RET M
C633: FF               RST 0x38
C634: FF               RST 0x38
C635: FC 00 00         CALL M, 0x0000
C638: 00               NOP
C639: 00               NOP
C63A: 00               NOP
C63B: 00               NOP
C63C: 3F               CCF
C63D: FF               RST 0x38
C63E: 1F               RRA
C63F: 80               ADD A, B
C640: 00               NOP
C641: 00               NOP
C642: 00               NOP
C643: 00               NOP
C644: 00               NOP
C645: 00               NOP
C646: 00               NOP
C647: 00               NOP
C648: 00               NOP
C649: 0F               RRCA
C64A: FF               RST 0x38
C64B: 00               NOP
C64C: 00               NOP
C64D: 00               NOP
C64E: FF               RST 0x38
C64F: FF               RST 0x38
C650: FF               RST 0x38
C651: 00               NOP
C652: FF               RST 0x38
C653: FF               RST 0x38
C654: C0               RET NZ
C655: 00               NOP
C656: 07               RLCA
C657: FF               RST 0x38
C658: 80               ADD A, B
C659: 03               INC BC
C65A: FF               RST 0x38
C65B: E0               RET PO
C65C: 00               NOP
C65D: 3F               CCF
C65E: F0               RET P
C65F: C0               RET NZ
C660: 00               NOP
C661: 00               NOP
C662: 00               NOP
C663: 00               NOP
C664: 00               NOP
C665: 00               NOP
C666: 00               NOP
C667: 00               NOP
C668: 00               NOP
C669: 00               NOP
C66A: 7F               LD A, A
C66B: FF               RST 0x38
C66C: FF               RST 0x38
C66D: FF               RST 0x38
C66E: 00               NOP
C66F: 00               NOP
C670: FF               RST 0x38
C671: 7F               LD A, A
C672: FF               RST 0x38
C673: E0               RET PO
C674: 00               NOP
C675: 00               NOP
C676: 00               NOP
C677: 00               NOP
C678: FF               RST 0x38
C679: FF               RST 0x38
C67A: 00               NOP
C67B: 00               NOP
C67C: 00               NOP
C67D: 07               RLCA
C67E: FC C0 1F         CALL M, 0x1FC0
C681: 00               NOP
C682: 01 FF FF         LD BC, 0xFFFF
C685: F8               RET M
C686: 00               NOP
C687: 00               NOP
C688: FC 00 00         CALL M, 0x0000
C68B: FF               RST 0x38
C68C: 00               NOP
C68D: 00               NOP
C68E: FF               RST 0x38
C68F: FF               RST 0x38
C690: 03               INC BC
C691: FF               RST 0x38
C692: F0               RET P
C693: 00               NOP
C694: 00               NOP
C695: 00               NOP
C696: 80               ADD A, B
C697: 3F               CCF
C698: FF               RST 0x38
C699: FF               RST 0x38
C69A: F8               RET M
C69B: 0F               RRCA
C69C: 00               NOP
C69D: 00               NOP
C69E: FE C0            CP 0xC0
C6A0: 00               NOP
C6A1: 07               RLCA
C6A2: FF               RST 0x38
C6A3: 00               NOP
C6A4: 00               NOP
C6A5: FF               RST 0x38
C6A6: FF               RST 0x38
C6A7: C0               RET NZ
C6A8: 03               INC BC
C6A9: 00               NOP
C6AA: 00               NOP
C6AB: 1F               RRA
C6AC: FF               RST 0x38
C6AD: FF               RST 0x38
C6AE: FF               RST 0x38
C6AF: 00               NOP
C6B0: 3F               CCF
C6B1: FE 00            CP 0x00
C6B3: 00               NOP
C6B4: 00               NOP
C6B5: 78               LD A, B
C6B6: FF               RST 0x38
C6B7: F0               RET P
C6B8: 00               NOP
C6B9: 00               NOP
C6BA: 1F               RRA
C6BB: FE E0            CP 0xE0
C6BD: 00               NOP
C6BE: 3E C0            LD A, 0xC0
C6C0: 00               NOP
C6C1: 7F               LD A, A
C6C2: C0               RET NZ
C6C3: 80               ADD A, B
C6C4: 00               NOP
C6C5: 07               RLCA
C6C6: FC FF 80         CALL M, 0x80FF
C6C9: 00               NOP
C6CA: 00               NOP
C6CB: 01 00 FF         LD BC, 0xFF00
C6CE: 86               ADD A, (HL)
C6CF: E8               RET PE
C6D0: 6E               LD L, (HL)
C6D1: 86               ADD A, (HL)
C6D2: 1F               RRA
C6D3: FF               RST 0x38
C6D4: FF               RST 0x38
C6D5: FF               RST 0x38
C6D6: 00               NOP
C6D7: FF               RST 0x38
C6D8: FF               RST 0x38
C6D9: FF               RST 0x38
C6DA: FF               RST 0x38
C6DB: FF               RST 0x38
C6DC: 00               NOP
C6DD: 00               NOP
C6DE: FF               RST 0x38
C6DF: 00               NOP
C6E0: 1F               RRA
C6E1: FF               RST 0x38
C6E2: FF               RST 0x38
C6E3: FF               RST 0x38
C6E4: F8               RET M
C6E5: 00               NOP
C6E6: 00               NOP
C6E7: FF               RST 0x38
C6E8: FF               RST 0x38
C6E9: FF               RST 0x38
C6EA: FF               RST 0x38
C6EB: FF               RST 0x38
C6EC: FF               RST 0x38
C6ED: FF               RST 0x38
C6EE: 00               NOP
C6EF: 00               NOP
C6F0: 00               NOP
C6F1: 00               NOP
C6F2: 00               NOP
C6F3: 00               NOP
C6F4: FF               RST 0x38
C6F5: FF               RST 0x38
C6F6: FF               RST 0x38
C6F7: FC 00 00         CALL M, 0x0000
C6FA: 00               NOP
C6FB: 3F               CCF
C6FC: FF               RST 0x38
C6FD: FF               RST 0x38
C6FE: 00               NOP
C6FF: 3F               CCF
C700: FF               RST 0x38
C701: FF               RST 0x38
C702: FF               RST 0x38
C703: FF               RST 0x38
C704: FF               RST 0x38
C705: FF               RST 0x38
C706: FF               RST 0x38
C707: 3F               CCF
C708: 00               NOP
C709: 00               NOP
C70A: 00               NOP
C70B: 00               NOP
C70C: 00               NOP
C70D: 00               NOP
C70E: 00               NOP
C70F: 00               NOP
C710: 00               NOP
C711: 00               NOP
C712: 00               NOP
C713: FF               RST 0x38
C714: FF               RST 0x38
C715: F0               RET P
C716: 00               NOP
C717: 00               NOP
C718: 00               NOP
C719: 00               NOP
C71A: 00               NOP
C71B: 00               NOP
C71C: 03               INC BC
C71D: FF               RST 0x38
C71E: FF               RST 0x38
C71F: 7F               LD A, A
C720: FC 00 00         CALL M, 0x0000
C723: 00               NOP
C724: 00               NOP
C725: 00               NOP
C726: 1F               RRA
C727: FF               RST 0x38
C728: F0               RET P
C729: FF               RST 0x38
C72A: 00               NOP
C72B: 00               NOP
C72C: 00               NOP
C72D: 00               NOP
C72E: FF               RST 0x38
C72F: FF               RST 0x38
C730: FF               RST 0x38
C731: FF               RST 0x38
C732: 00               NOP
C733: FF               RST 0x38
C734: C0               RET NZ
C735: 00               NOP
C736: 01 FF 00         LD BC, 0x00FF
C739: 00               NOP
C73A: 00               NOP
C73B: C0               RET NZ
C73C: 00               NOP
C73D: 1F               RRA
C73E: 00               NOP
C73F: 3F               CCF
C740: 00               NOP
C741: 00               NOP
C742: 00               NOP
C743: 00               NOP
C744: 00               NOP
C745: 00               NOP
C746: 00               NOP
C747: 00               NOP
C748: FF               RST 0x38
C749: C0               RET NZ
C74A: 00               NOP
C74B: FF               RST 0x38
C74C: FF               RST 0x38
C74D: FF               RST 0x38
C74E: 00               NOP
C74F: 00               NOP
C750: 00               NOP
C751: FF               RST 0x38
C752: FF               RST 0x38
C753: 80               ADD A, B
C754: 00               NOP
C755: 3F               CCF
C756: C0               RET NZ
C757: 00               NOP
C758: 00               NOP
C759: 00               NOP
C75A: 00               NOP
C75B: 07               RLCA
C75C: E0               RET PO
C75D: 00               NOP
C75E: FF               RST 0x38
C75F: 7F               LD A, A
C760: 00               NOP
C761: 00               NOP
C762: FF               RST 0x38
C763: 00               NOP
C764: 00               NOP
C765: FF               RST 0x38
C766: 00               NOP
C767: 00               NOP
C768: 00               NOP
C769: FF               RST 0x38
C76A: E0               RET PO
C76B: 00               NOP
C76C: 00               NOP
C76D: 00               NOP
C76E: FF               RST 0x38
C76F: FF               RST 0x38
C770: 00               NOP
C771: FF               RST 0x38
C772: E0               RET PO
C773: 00               NOP
C774: 00               NOP
C775: 00               NOP
C776: 07               RLCA
C777: FF               RST 0x38
C778: 05               DEC B
C779: C0               RET NZ
C77A: FF               RST 0x38
C77B: 80               ADD A, B
C77C: 00               NOP
C77D: C0               RET NZ
C77E: 3F               CCF
C77F: 3C               INC A
C780: 00               NOP
C781: F8               RET M
C782: 00               NOP
C783: 00               NOP
C784: 00               NOP
C785: 00               NOP
C786: 00               NOP
C787: 7E               LD A, (HL)
C788: 00               NOP
C789: 01 FE 00         LD BC, 0x00FE
C78C: FF               RST 0x38
C78D: FF               RST 0x38
C78E: 00               NOP
C78F: 00               NOP
C790: FF               RST 0x38
C791: F8               RET M
C792: 00               NOP
C793: 00               NOP
C794: 00               NOP
C795: 3F               CCF
C796: 7F               LD A, A
C797: FF               RST 0x38
C798: F0               RET P
C799: 1F               RRA
C79A: FF               RST 0x38
C79B: F8               RET M
C79C: C0               RET NZ
C79D: 00               NOP
C79E: 0F               RRCA
C79F: 3C               INC A
C7A0: 00               NOP
C7A1: 80               ADD A, B
C7A2: 3F               CCF
C7A3: 00               NOP
C7A4: 00               NOP
C7A5: FF               RST 0x38
C7A6: F0               RET P
C7A7: 00               NOP
C7A8: 7F               LD A, A
C7A9: 00               NOP
C7AA: 1F               RRA
C7AB: F8               RET M
C7AC: 00               NOP
C7AD: 00               NOP
C7AE: 00               NOP
C7AF: FF               RST 0x38
C7B0: FF               RST 0x38
C7B1: 80               ADD A, B
C7B2: 07               RLCA
C7B3: 00               NOP
C7B4: 1E 00            LD E, 0x00
C7B6: E0               RET PO
C7B7: 00               NOP
C7B8: 00               NOP
C7B9: 00               NOP
C7BA: 00               NOP
C7BB: 1F               RRA
C7BC: 0E 00            LD C, 0x00
C7BE: 07               RLCA
C7BF: 38 00            JR C, 0xC7C1
C7C1: 07               RLCA
C7C2: FE FF            CP 0xFF
C7C4: FF               RST 0x38
C7C5: FF               RST 0x38
C7C6: 00               NOP
C7C7: F0               RET P
C7C8: 00               NOP
C7C9: 00               NOP
C7CA: 00               NOP
C7CB: FF               RST 0x38
C7CC: 7F               LD A, A
C7CD: 00               NOP
C7CE: BA               CP D
C7CF: EB               EX DE, HL
C7D0: 6E               LD L, (HL)
C7D1: BE               CP (HL)
C7D2: DF               RST 0x18
C7D3: FF               RST 0x38
C7D4: FF               RST 0x38
C7D5: FF               RST 0x38
C7D6: 00               NOP
C7D7: 00               NOP
C7D8: 00               NOP
C7D9: 00               NOP
C7DA: 00               NOP
C7DB: 00               NOP
C7DC: F0               RET P
C7DD: 00               NOP
C7DE: FF               RST 0x38
C7DF: 00               NOP
C7E0: 00               NOP
C7E1: 00               NOP
C7E2: 00               NOP
C7E3: 00               NOP
C7E4: 00               NOP
C7E5: 00               NOP
C7E6: 00               NOP
C7E7: FF               RST 0x38
C7E8: FF               RST 0x38
C7E9: FF               RST 0x38
C7EA: FF               RST 0x38
C7EB: FF               RST 0x38
C7EC: FF               RST 0x38
C7ED: FF               RST 0x38
C7EE: 00               NOP
C7EF: 00               NOP
C7F0: 00               NOP
C7F1: 00               NOP
C7F2: 00               NOP
C7F3: 00               NOP
C7F4: FC 00 00         CALL M, 0x0000
C7F7: 00               NOP
C7F8: 00               NOP
C7F9: 00               NOP
C7FA: 00               NOP
C7FB: 00               NOP
C7FC: 00               NOP
C7FD: 03               INC BC
C7FE: 00               NOP
C7FF: 00               NOP
C800: 00               NOP
C801: 07               RLCA
C802: FF               RST 0x38
C803: FF               RST 0x38
C804: F8               RET M
C805: 00               NOP
C806: 00               NOP
C807: FF               RST 0x38
C808: 00               NOP
C809: 00               NOP
C80A: 00               NOP
C80B: 00               NOP
C80C: 00               NOP
C80D: 00               NOP
C80E: 00               NOP
C80F: 00               NOP
C810: 00               NOP
C811: 00               NOP
C812: 00               NOP
C813: F0               RET P
C814: 00               NOP
C815: 00               NOP
C816: 00               NOP
C817: 1F               RRA
C818: FF               RST 0x38
C819: FF               RST 0x38
C81A: FF               RST 0x38
C81B: 00               NOP
C81C: 00               NOP
C81D: 00               NOP
C81E: 7F               LD A, A
C81F: 00               NOP
C820: 0F               RRCA
C821: FF               RST 0x38
C822: FF               RST 0x38
C823: FF               RST 0x38
C824: FF               RST 0x38
C825: FF               RST 0x38
C826: FC 00 00         CALL M, 0x0000
C829: FF               RST 0x38
C82A: 00               NOP
C82B: 00               NOP
C82C: 00               NOP
C82D: 00               NOP
C82E: FF               RST 0x38
C82F: FF               RST 0x38
C830: FF               RST 0x38
C831: FF               RST 0x38
C832: 03               INC BC
C833: 00               NOP
C834: 00               NOP
C835: 3F               CCF
C836: FE 00            CP 0x00
C838: 00               NOP
C839: 00               NOP
C83A: 00               NOP
C83B: 3F               CCF
C83C: F8               RET M
C83D: 00               NOP
C83E: C0               RET NZ
C83F: 00               NOP
C840: 7F               LD A, A
C841: 00               NOP
C842: 00               NOP
C843: 00               NOP
C844: 00               NOP
C845: 00               NOP
C846: 01 FF 00         LD BC, 0x00FF
C849: 00               NOP
C84A: 00               NOP
C84B: FF               RST 0x38
C84C: FF               RST 0x38
C84D: FF               RST 0x38
C84E: 00               NOP
C84F: 00               NOP
C850: 00               NOP
C851: F8               RET M
C852: 00               NOP
C853: 00               NOP
C854: 7F               LD A, A
C855: 00               NOP
C856: 00               NOP
C857: 07               RLCA
C858: FF               RST 0x38
C859: FF               RST 0x38
C85A: F0               RET P
C85B: 00               NOP
C85C: 07               RLCA
C85D: C0               RET NZ
C85E: 07               RLCA
C85F: 01 F8 00         LD BC, 0x00F8
C862: 0F               RRCA
C863: 00               NOP
C864: 00               NOP
C865: F8               RET M
C866: 00               NOP
C867: 00               NOP
C868: FF               RST 0x38
C869: 80               ADD A, B
C86A: 00               NOP
C86B: 00               NOP
C86C: 00               NOP
C86D: 00               NOP
C86E: FF               RST 0x38
C86F: FF               RST 0x38
C870: 00               NOP
C871: 80               ADD A, B
C872: 00               NOP
C873: FF               RST 0x38
C874: 00               NOP
C875: 0F               RRCA
C876: F8               RET M
C877: 00               NOP
C878: FF               RST 0x38
C879: FF               RST 0x38
C87A: 00               NOP
C87B: 3F               CCF
C87C: 80               ADD A, B
C87D: 3E 03            LD A, 0x03
C87F: 03               INC BC
C880: C0               RET NZ
C881: 07               RLCA
C882: E0               RET PO
C883: 00               NOP
C884: 00               NOP
C885: 00               NOP
C886: 3F               CCF
C887: 80               ADD A, B
C888: 00               NOP
C889: FE 00            CP 0x00
C88B: 00               NOP
C88C: FF               RST 0x38
C88D: FF               RST 0x38
C88E: 00               NOP
C88F: 00               NOP
C890: E0               RET PO
C891: 00               NOP
C892: 1F               RRA
C893: 00               NOP
C894: 1F               RRA
C895: 80               ADD A, B
C896: F8               RET M
C897: 00               NOP
C898: 00               NOP
C899: 00               NOP
C89A: 00               NOP
C89B: 7F               LD A, A
C89C: 1E 00            LD E, 0x00
C89E: 81               ADD A, C
C89F: 07               RLCA
C8A0: 80               ADD A, B
C8A1: F8               RET M
C8A2: 00               NOP
C8A3: 80               ADD A, B
C8A4: 00               NOP
C8A5: F8               RET M
C8A6: 00               NOP
C8A7: 0F               RRCA
C8A8: E0               RET PO
C8A9: 03               INC BC
C8AA: F8               RET M
C8AB: 00               NOP
C8AC: 00               NOP
C8AD: 00               NOP
C8AE: 00               NOP
C8AF: FF               RST 0x38
C8B0: 00               NOP
C8B1: 01 E0 07         LD BC, 0x07E0
C8B4: C0               RET NZ
C8B5: 0F               RRCA
C8B6: 01 FF F0         LD BC, 0xF0FF
C8B9: 03               INC BC
C8BA: FF               RST 0x38
C8BB: 00               NOP
C8BC: 01 C0 C0         LD BC, 0xC0C0
C8BF: 0F               RRCA
C8C0: 00               NOP
C8C1: 00               NOP
C8C2: 7F               LD A, A
C8C3: 00               NOP
C8C4: 18 00            JR 0xC8C6
C8C6: 00               NOP
C8C7: 00               NOP
C8C8: 1E 00            LD E, 0x00
C8CA: 3F               CCF
C8CB: 80               ADD A, B
C8CC: FF               RST 0x38
C8CD: 00               NOP
C8CE: 82               ADD A, D
C8CF: 0B               DEC BC
C8D0: A0               AND B
C8D1: 82               ADD A, D
C8D2: E8               RET PE
C8D3: 00               NOP
C8D4: 00               NOP
C8D5: 00               NOP
C8D6: FF               RST 0x38
C8D7: 00               NOP
C8D8: 00               NOP
C8D9: 00               NOP
C8DA: 00               NOP
C8DB: 00               NOP
C8DC: FF               RST 0x38
C8DD: FF               RST 0x38
C8DE: 00               NOP
C8DF: F8               RET M
C8E0: 00               NOP
C8E1: 00               NOP
C8E2: 00               NOP
C8E3: 00               NOP
C8E4: 00               NOP
C8E5: 01 FF 00         LD BC, 0x00FF
C8E8: 00               NOP
C8E9: 00               NOP
C8EA: 00               NOP
C8EB: 00               NOP
C8EC: 00               NOP
C8ED: 00               NOP
C8EE: FF               RST 0x38
C8EF: FF               RST 0x38
C8F0: FF               RST 0x38
C8F1: FF               RST 0x38
C8F2: FF               RST 0x38
C8F3: FF               RST 0x38
C8F4: 00               NOP
C8F5: 00               NOP
C8F6: 00               NOP
C8F7: 0F               RRCA
C8F8: FF               RST 0x38
C8F9: FF               RST 0x38
C8FA: FF               RST 0x38
C8FB: E0               RET PO
C8FC: 00               NOP
C8FD: 00               NOP
C8FE: FF               RST 0x38
C8FF: F0               RET P
C900: 00               NOP
C901: 00               NOP
C902: 00               NOP
C903: 00               NOP
C904: 00               NOP
C905: 00               NOP
C906: 00               NOP
C907: 80               ADD A, B
C908: FF               RST 0x38
C909: FF               RST 0x38
C90A: FF               RST 0x38
C90B: FF               RST 0x38
C90C: FF               RST 0x38
C90D: FF               RST 0x38
C90E: FF               RST 0x38
C90F: FF               RST 0x38
C910: FF               RST 0x38
C911: FF               RST 0x38
C912: FF               RST 0x38
C913: 00               NOP
C914: 00               NOP
C915: 3F               CCF
C916: FC 00 00         CALL M, 0x0000
C919: 00               NOP
C91A: 00               NOP
C91B: 0F               RRCA
C91C: FE 00            CP 0x00
C91E: 00               NOP
C91F: C0               RET NZ
C920: 00               NOP
C921: 00               NOP
C922: 3F               CCF
C923: FF               RST 0x38
C924: FC 00 00         CALL M, 0x0000
C927: 00               NOP
C928: 0F               RRCA
C929: 00               NOP
C92A: FF               RST 0x38
C92B: FF               RST 0x38
C92C: FF               RST 0x38
C92D: FF               RST 0x38
C92E: 00               NOP
C92F: 00               NOP
C930: 00               NOP
C931: 00               NOP
C932: FF               RST 0x38
C933: 03               INC BC
C934: FF               RST 0x38
C935: 80               ADD A, B
C936: 00               NOP
C937: 00               NOP
C938: 1F               RRA
C939: FC 00 00         CALL M, 0x0000
C93C: 07               RLCA
C93D: F8               RET M
C93E: FF               RST 0x38
C93F: 80               ADD A, B
C940: 00               NOP
C941: 7F               LD A, A
C942: E0               RET PO
C943: 00               NOP
C944: 00               NOP
C945: 1F               RRA
C946: FC 00 00         CALL M, 0x0000
C949: 03               INC BC
C94A: FF               RST 0x38
C94B: 00               NOP
C94C: 00               NOP
C94D: 00               NOP
C94E: FF               RST 0x38
C94F: FF               RST 0x38
C950: FF               RST 0x38
C951: 00               NOP
C952: 00               NOP
C953: FC 00 01         CALL M, 0x0100
C956: FF               RST 0x38
C957: 00               NOP
C958: 00               NOP
C959: 00               NOP
C95A: 00               NOP
C95B: FE 00            CP 0x00
C95D: 0F               RRCA
C95E: 00               NOP
C95F: C0               RET NZ
C960: 0F               RRCA
C961: E0               RET PO
C962: 00               NOP
C963: 00               NOP
C964: 00               NOP
C965: 00               NOP
C966: 00               NOP
C967: 7F               LD A, A
C968: C0               RET NZ
C969: 00               NOP
C96A: 1F               RRA
C96B: FF               RST 0x38
C96C: FF               RST 0x38
C96D: FF               RST 0x38
C96E: 00               NOP
C96F: 00               NOP
C970: FF               RST 0x38
C971: 00               NOP
C972: FF               RST 0x38
C973: 00               NOP
C974: 0F               RRCA
C975: E0               RET PO
C976: 00               NOP
C977: 3F               CCF
C978: 00               NOP
C979: 00               NOP
C97A: F8               RET M
C97B: 00               NOP
C97C: 3E 03            LD A, 0x03
C97E: E0               RET PO
C97F: C0               RET NZ
C980: 3C               INC A
C981: 00               NOP
C982: 3F               CCF
C983: F0               RET P
C984: 01 FF E0         LD BC, 0xE0FF
C987: 00               NOP
C988: 1F               RRA
C989: 80               ADD A, B
C98A: 00               NOP
C98B: 3F               CCF
C98C: 00               NOP
C98D: 00               NOP
C98E: FF               RST 0x38
C98F: FF               RST 0x38
C990: 00               NOP
C991: 0F               RRCA
C992: C0               RET NZ
C993: 07               RLCA
C994: E0               RET PO
C995: 07               RLCA
C996: 00               NOP
C997: 07               RLCA
C998: FF               RST 0x38
C999: FF               RST 0x38
C99A: C0               RET NZ
C99B: 00               NOP
C99C: 01 E0 70         LD BC, 0x70E0
C99F: C0               RET NZ
C9A0: F0               RET P
C9A1: 0F               RRCA
C9A2: 80               ADD A, B
C9A3: FF               RST 0x38
C9A4: FF               RST 0x38
C9A5: 00               NOP
C9A6: 03               INC BC
C9A7: FC 00 FE         CALL M, 0xFE00
C9AA: 00               NOP
C9AB: 07               RLCA
C9AC: FF               RST 0x38
C9AD: FF               RST 0x38
C9AE: FF               RST 0x38
C9AF: 00               NOP
C9B0: 00               NOP
C9B1: 7C               LD A, H
C9B2: 00               NOP
C9B3: F0               RET P
C9B4: 03               INC BC
C9B5: FE FC            CP 0xFC
C9B7: 00               NOP
C9B8: 00               NOP
C9B9: 00               NOP
C9BA: 00               NOP
C9BB: FC F0 18         CALL M, 0x18F0
C9BE: 18 C1            JR 0xC981
C9C0: C0               RET NZ
C9C1: E0               RET PO
C9C2: 07               RLCA
C9C3: 00               NOP
C9C4: 00               NOP
C9C5: 00               NOP
C9C6: 3F               CCF
C9C7: 01 E0 07         LD BC, 0x07E0
C9CA: E0               RET PO
C9CB: 00               NOP
C9CC: 00               NOP
C9CD: FF               RST 0x38
C9CE: 87               ADD A, A
C9CF: 1B               DEC DE
C9D0: A1               AND C
C9D1: 82               ADD A, D
C9D2: E8               RET PE
C9D3: 00               NOP
C9D4: 00               NOP
C9D5: 00               NOP
C9D6: 00               NOP
C9D7: FF               RST 0x38
C9D8: FF               RST 0x38
C9D9: FF               RST 0x38
C9DA: FF               RST 0x38
C9DB: FF               RST 0x38
C9DC: 00               NOP
C9DD: 3F               CCF
C9DE: 00               NOP
C9DF: FF               RST 0x38
C9E0: FF               RST 0x38
C9E1: FF               RST 0x38
C9E2: FF               RST 0x38
C9E3: FF               RST 0x38
C9E4: FF               RST 0x38
C9E5: FF               RST 0x38
C9E6: FF               RST 0x38
C9E7: 00               NOP
C9E8: 00               NOP
C9E9: 00               NOP
C9EA: 00               NOP
C9EB: 00               NOP
C9EC: 00               NOP
C9ED: 00               NOP
C9EE: FF               RST 0x38
C9EF: FF               RST 0x38
C9F0: FF               RST 0x38
C9F1: FF               RST 0x38
C9F2: FF               RST 0x38
C9F3: FF               RST 0x38
C9F4: 03               INC BC
C9F5: FF               RST 0x38
C9F6: FC 00 00         CALL M, 0x0000
C9F9: 00               NOP
C9FA: 00               NOP
C9FB: 00               NOP
C9FC: FF               RST 0x38
C9FD: F8               RET M
C9FE: FF               RST 0x38
C9FF: FF               RST 0x38
CA00: FF               RST 0x38
CA01: F8               RET M
CA02: 00               NOP
CA03: 00               NOP
CA04: 01 FF FF         LD BC, 0xFFFF
CA07: 00               NOP
CA08: FF               RST 0x38
CA09: FF               RST 0x38
CA0A: FF               RST 0x38
CA0B: FF               RST 0x38
CA0C: FF               RST 0x38
CA0D: FF               RST 0x38
CA0E: FF               RST 0x38
CA0F: FF               RST 0x38
CA10: FF               RST 0x38
CA11: FF               RST 0x38
CA12: FF               RST 0x38
CA13: 0F               RRCA
CA14: FE 00            CP 0x00
CA16: 00               NOP
CA17: 00               NOP
CA18: 00               NOP
CA19: 00               NOP
CA1A: 00               NOP
CA1B: 00               NOP
CA1C: 00               NOP
CA1D: 7F               LD A, A
CA1E: 80               ADD A, B
CA1F: FF               RST 0x38
CA20: F0               RET P
CA21: 00               NOP
CA22: 00               NOP
CA23: 00               NOP
CA24: 00               NOP
CA25: 00               NOP
CA26: 00               NOP
CA27: FF               RST 0x38
CA28: FF               RST 0x38
CA29: 00               NOP
CA2A: FF               RST 0x38
CA2B: FF               RST 0x38
CA2C: FF               RST 0x38
CA2D: FF               RST 0x38
CA2E: 00               NOP
CA2F: 00               NOP
CA30: 00               NOP
CA31: 00               NOP
CA32: C0               RET NZ
CA33: FC 00 00         CALL M, 0x0000
CA36: 7F               LD A, A
CA37: FF               RST 0x38
CA38: 40               LD B, B
CA39: 00               NOP
CA3A: FF               RST 0x38
CA3B: FE 00            CP 0x00
CA3D: 07               RLCA
CA3E: 0F               RRCA
CA3F: FF               RST 0x38
CA40: 00               NOP
CA41: 00               NOP
CA42: 1F               RRA
CA43: FF               RST 0x38
CA44: FF               RST 0x38
CA45: E0               RET PO
CA46: 00               NOP
CA47: 00               NOP
CA48: 0F               RRCA
CA49: FF               RST 0x38
CA4A: FF               RST 0x38
CA4B: 00               NOP
CA4C: 00               NOP
CA4D: 00               NOP
CA4E: FF               RST 0x38
CA4F: FF               RST 0x38
CA50: FF               RST 0x38
CA51: 07               RLCA
CA52: FC 00 00         CALL M, 0x0000
CA55: F8               RET M
CA56: 00               NOP
CA57: 00               NOP
CA58: 00               NOP
CA59: 00               NOP
CA5A: 00               NOP
CA5B: 00               NOP
CA5C: 00               NOP
CA5D: 00               NOP
CA5E: 78               LD A, B
CA5F: FE 00            CP 0x00
CA61: 7F               LD A, A
CA62: E0               RET PO
CA63: 00               NOP
CA64: 00               NOP
CA65: 00               NOP
CA66: FF               RST 0x38
CA67: E0               RET PO
CA68: 00               NOP
CA69: 3F               CCF
CA6A: FF               RST 0x38
CA6B: FF               RST 0x38
CA6C: FF               RST 0x38
CA6D: FF               RST 0x38
CA6E: 00               NOP
CA6F: 00               NOP
CA70: FE FF            CP 0xFF
CA72: 80               ADD A, B
CA73: 07               RLCA
CA74: F0               RET P
CA75: 00               NOP
CA76: FF               RST 0x38
CA77: FF               RST 0x38
CA78: 00               NOP
CA79: 00               NOP
CA7A: FF               RST 0x38
CA7B: FC 01 F0         CALL M, 0xF001
CA7E: 1E FC            LD E, 0xFC
CA80: 03               INC BC
CA81: 00               NOP
CA82: 00               NOP
CA83: 0F               RRCA
CA84: FF               RST 0x38
CA85: 00               NOP
CA86: 00               NOP
CA87: 07               RLCA
CA88: E0               RET PO
CA89: 00               NOP
CA8A: 7F               LD A, A
CA8B: FF               RST 0x38
CA8C: 00               NOP
CA8D: 00               NOP
CA8E: FF               RST 0x38
CA8F: FF               RST 0x38
CA90: 0F               RRCA
CA91: E0               RET PO
CA92: 00               NOP
CA93: F8               RET M
CA94: 01 FF 1F         LD BC, 0x1FFF
CA97: C0               RET NZ
CA98: 00               NOP
CA99: 00               NOP
CA9A: 07               RLCA
CA9B: E0               RET PO
CA9C: F0               RET P
CA9D: 1C               INC E
CA9E: 0E F8            LD C, 0xF8
CAA0: 1E 00            LD E, 0x00
CAA2: FE FF            CP 0xFF
CAA4: FF               RST 0x38
CAA5: 00               NOP
CAA6: FF               RST 0x38
CAA7: 00               NOP
CAA8: 1F               RRA
CAA9: C0               RET NZ
CAAA: 07               RLCA
CAAB: FF               RST 0x38
CAAC: FF               RST 0x38
CAAD: FF               RST 0x38
CAAE: FF               RST 0x38
CAAF: 00               NOP
CAB0: FE 00            CP 0x00
CAB2: 1E 00            LD E, 0x00
CAB4: 7F               LD A, A
CAB5: C1               POP BC
CAB6: 00               NOP
CAB7: 00               NOP
CAB8: FF               RST 0x38
CAB9: FF               RST 0x38
CABA: 00               NOP
CABB: 03               INC BC
CABC: 3F               CCF
CABD: 03               INC BC
CABE: 06 F8            LD B, 0xF8
CAC0: 78               LD A, B
CAC1: 1C               INC E
CAC2: 00               NOP
CAC3: F0               RET P
CAC4: 00               NOP
CAC5: 3F               CCF
CAC6: FF               RST 0x38
CAC7: 3E 00            LD A, 0x00
CAC9: 7C               LD A, H
CACA: 00               NOP
CACB: 7F               LD A, A
CACC: 00               NOP
CACD: FF               RST 0x38
CACE: FF               RST 0x38
CACF: FF               RST 0x38
CAD0: FF               RST 0x38
CAD1: FF               RST 0x38
CAD2: FF               RST 0x38
CAD3: FF               RST 0x38
CAD4: FF               RST 0x38
CAD5: FF               RST 0x38
CAD6: 3F               CCF
CAD7: 00               NOP
CAD8: 00               NOP
CAD9: 00               NOP
CADA: 00               NOP
CADB: 00               NOP
CADC: FF               RST 0x38
CADD: 00               NOP
CADE: FF               RST 0x38
CADF: 03               INC BC
CAE0: FF               RST 0x38
CAE1: FF               RST 0x38
CAE2: FF               RST 0x38
CAE3: FF               RST 0x38
CAE4: FF               RST 0x38
CAE5: FE 00            CP 0x00
CAE7: FF               RST 0x38
CAE8: FF               RST 0x38
CAE9: FF               RST 0x38
CAEA: FF               RST 0x38
CAEB: FF               RST 0x38
CAEC: FF               RST 0x38
CAED: FF               RST 0x38
CAEE: 00               NOP
CAEF: 00               NOP
CAF0: 00               NOP
CAF1: 00               NOP
CAF2: 00               NOP
CAF3: 00               NOP
CAF4: C0               RET NZ
CAF5: 00               NOP
CAF6: 00               NOP
CAF7: 00               NOP
CAF8: 00               NOP
CAF9: 00               NOP
CAFA: 00               NOP
CAFB: 00               NOP
CAFC: 00               NOP
CAFD: 01 00 3F         LD BC, 0x3F00
CB00: FF               RST 0x38
CB01: FF               RST 0x38
CB02: FF               RST 0x38
CB03: FF               RST 0x38
CB04: FF               RST 0x38
CB05: FF               RST 0x38
CB06: FF               RST 0x38
CB07: 01 00 00         LD BC, 0x0000
CB0A: 00               NOP
CB0B: 00               NOP
CB0C: 00               NOP
CB0D: 00               NOP
CB0E: 00               NOP
CB0F: 00               NOP
CB10: 00               NOP
CB11: 00               NOP
CB12: 00               NOP
CB13: 00               NOP
CB14: 00               NOP
CB15: 00               NOP
CB16: 0F               RRCA
CB17: FF               RST 0x38
CB18: FF               RST 0x38
CB19: 7F               LD A, A
CB1A: FF               RST 0x38
CB1B: FC 00 00         CALL M, 0x0000
CB1E: 3F               CCF
CB1F: 7F               LD A, A
CB20: FF               RST 0x38
CB21: FF               RST 0x38
CB22: 00               NOP
CB23: 00               NOP
CB24: 00               NOP
CB25: 1F               RRA
CB26: FF               RST 0x38
CB27: FF               RST 0x38
CB28: FF               RST 0x38
CB29: 7F               LD A, A
CB2A: 00               NOP
CB2B: 00               NOP
CB2C: 00               NOP
CB2D: 00               NOP
CB2E: FF               RST 0x38
CB2F: FF               RST 0x38
CB30: FF               RST 0x38
CB31: FF               RST 0x38
CB32: 1F               RRA
CB33: 00               NOP
CB34: 07               RLCA
CB35: FF               RST 0x38
CB36: 00               NOP
CB37: 00               NOP
CB38: 00               NOP
CB39: 00               NOP
CB3A: 00               NOP
CB3B: 01 FF 00         LD BC, 0x00FF
CB3E: E0               RET PO
CB3F: 3F               CCF
CB40: FC 00 00         CALL M, 0x0000
CB43: 00               NOP
CB44: 00               NOP
CB45: 00               NOP
CB46: 00               NOP
CB47: 1F               RRA
CB48: FF               RST 0x38
CB49: FC 00 FF         CALL M, 0xFF00
CB4C: FF               RST 0x38
CB4D: FF               RST 0x38
CB4E: 00               NOP
CB4F: 00               NOP
CB50: 00               NOP
CB51: E0               RET PO
CB52: 00               NOP
CB53: 00               NOP
CB54: 00               NOP
CB55: 00               NOP
CB56: 07               RLCA
CB57: FF               RST 0x38
CB58: FF               RST 0x38
CB59: FF               RST 0x38
CB5A: FF               RST 0x38
CB5B: C0               RET NZ
CB5C: 00               NOP
CB5D: 00               NOP
CB5E: 03               INC BC
CB5F: 3F               CCF
CB60: F0               RET P
CB61: 00               NOP
CB62: FF               RST 0x38
CB63: FF               RST 0x38
CB64: FF               RST 0x38
CB65: FF               RST 0x38
CB66: F0               RET P
CB67: 00               NOP
CB68: 1F               RRA
CB69: FF               RST 0x38
CB6A: FC 00 00         CALL M, 0x0000
CB6D: 00               NOP
CB6E: FF               RST 0x38
CB6F: FF               RST 0x38
CB70: 00               NOP
CB71: 00               NOP
CB72: 03               INC BC
CB73: F8               RET M
CB74: 00               NOP
CB75: FF               RST 0x38
CB76: FE 00            CP 0x00
CB78: F0               RET P
CB79: 17               RLA
CB7A: 00               NOP
CB7B: FF               RST 0x38
CB7C: F0               RET P
CB7D: 0F               RRCA
CB7E: 03               INC BC
CB7F: 3F               CCF
CB80: 80               ADD A, B
CB81: 00               NOP
CB82: 00               NOP
CB83: 00               NOP
CB84: 00               NOP
CB85: 00               NOP
CB86: 00               NOP
CB87: F8               RET M
CB88: 00               NOP
CB89: 1F               RRA
CB8A: FF               RST 0x38
CB8B: 80               ADD A, B
CB8C: FF               RST 0x38
CB8D: FF               RST 0x38
CB8E: 00               NOP
CB8F: 00               NOP
CB90: C0               RET NZ
CB91: 00               NOP
CB92: 00               NOP
CB93: 00               NOP
CB94: 7F               LD A, A
CB95: E0               RET PO
CB96: 80               ADD A, B
CB97: 00               NOP
CB98: 00               NOP
CB99: 00               NOP
CB9A: 00               NOP
CB9B: 07               RLCA
CB9C: FF               RST 0x38
CB9D: 03               INC BC
CB9E: 01 3F 01         LD BC, 0x013F
CBA1: E0               RET PO
CBA2: 07               RLCA
CBA3: 00               NOP
CBA4: 00               NOP
CBA5: FF               RST 0x38
CBA6: C0               RET NZ
CBA7: 01 F8 01         LD BC, 0x01F8
CBAA: FF               RST 0x38
CBAB: FE 00            CP 0x00
CBAD: 00               NOP
CBAE: 00               NOP
CBAF: FE 00            CP 0x00
CBB1: 07               RLCA
CBB2: C0               RET NZ
CBB3: 0F               RRCA
CBB4: F0               RET P
CBB5: 3F               CCF
CBB6: 00               NOP
CBB7: 00               NOP
CBB8: 00               NOP
CBB9: 00               NOP
CBBA: 00               NOP
CBBB: 00               NOP
CBBC: C3 E0 C0         JP 0xC0E0
CBBF: 3E 0E            LD A, 0x0E
CBC1: 03               INC BC
CBC2: C0               RET NZ
CBC3: FF               RST 0x38
CBC4: FF               RST 0x38
CBC5: FF               RST 0x38
CBC6: F8               RET M
CBC7: C0               RET NZ
CBC8: 00               NOP
CBC9: C0               RET NZ
CBCA: 1F               RRA
CBCB: FF               RST 0x38
CBCC: 3F               CCF
CBCD: 00               NOP
CBCE: 00               NOP
CBCF: 00               NOP
CBD0: 00               NOP
CBD1: 00               NOP
CBD2: 00               NOP
CBD3: 00               NOP
CBD4: 00               NOP
CBD5: 00               NOP
CBD6: FF               RST 0x38
CBD7: 00               NOP
CBD8: 00               NOP
CBD9: 00               NOP
CBDA: 00               NOP
CBDB: 00               NOP
CBDC: FF               RST 0x38
CBDD: FF               RST 0x38
CBDE: 00               NOP
CBDF: E0               RET PO
CBE0: 00               NOP
CBE1: 00               NOP
CBE2: 00               NOP
CBE3: 00               NOP
CBE4: 00               NOP
CBE5: 00               NOP
CBE6: 0F               RRCA
CBE7: 00               NOP
CBE8: 00               NOP
CBE9: 00               NOP
CBEA: 00               NOP
CBEB: 00               NOP
CBEC: 00               NOP
CBED: 00               NOP
CBEE: FF               RST 0x38
CBEF: FF               RST 0x38
CBF0: FF               RST 0x38
CBF1: FF               RST 0x38
CBF2: FF               RST 0x38
CBF3: FF               RST 0x38
CBF4: 00               NOP
CBF5: 00               NOP
CBF6: 00               NOP
CBF7: 00               NOP
CBF8: 00               NOP
CBF9: 00               NOP
CBFA: 00               NOP
CBFB: 00               NOP
CBFC: 00               NOP
CBFD: 00               NOP
CBFE: FF               RST 0x38
CBFF: E0               RET PO
CC00: 01 FF FF         LD BC, 0xFFFF
CC03: FF               RST 0x38
CC04: FF               RST 0x38
CC05: FE 00            CP 0x00
CC07: FC FF FF         CALL M, 0xFFFF
CC0A: FF               RST 0x38
CC0B: FF               RST 0x38
CC0C: FF               RST 0x38
CC0D: FF               RST 0x38
CC0E: FF               RST 0x38
CC0F: FF               RST 0x38
CC10: FF               RST 0x38
CC11: FF               RST 0x38
CC12: FF               RST 0x38
CC13: 00               NOP
CC14: 03               INC BC
CC15: FF               RST 0x38
CC16: 00               NOP
CC17: 00               NOP
CC18: 00               NOP
CC19: 00               NOP
CC1A: 00               NOP
CC1B: 00               NOP
CC1C: 7F               LD A, A
CC1D: 80               ADD A, B
CC1E: 00               NOP
CC1F: C0               RET NZ
CC20: 3F               CCF
CC21: FF               RST 0x38
CC22: FF               RST 0x38
CC23: FF               RST 0x38
CC24: FF               RST 0x38
CC25: FF               RST 0x38
CC26: FF               RST 0x38
CC27: F0               RET P
CC28: 00               NOP
CC29: 00               NOP
CC2A: FF               RST 0x38
CC2B: FF               RST 0x38
CC2C: FF               RST 0x38
CC2D: FF               RST 0x38
CC2E: 00               NOP
CC2F: 00               NOP
CC30: 00               NOP
CC31: 00               NOP
CC32: FF               RST 0x38
CC33: 1F               RRA
CC34: F8               RET M
CC35: 00               NOP
CC36: 01 FF FF         LD BC, 0xFFFF
CC39: FF               RST 0x38
CC3A: FF               RST 0x38
CC3B: 00               NOP
CC3C: 01 FC FF         LD BC, 0xFFFC
CC3F: 80               ADD A, B
CC40: FF               RST 0x38
CC41: FC 00 00         CALL M, 0x0000
CC44: 00               NOP
CC45: 00               NOP
CC46: 3F               CCF
CC47: FF               RST 0x38
CC48: F0               RET P
CC49: 00               NOP
CC4A: 7F               LD A, A
CC4B: 00               NOP
CC4C: 00               NOP
CC4D: 00               NOP
CC4E: FF               RST 0x38
CC4F: FF               RST 0x38
CC50: FF               RST 0x38
CC51: 00               NOP
CC52: 00               NOP
CC53: 00               NOP
CC54: 00               NOP
CC55: 1F               RRA
CC56: FF               RST 0x38
CC57: F8               RET M
CC58: 00               NOP
CC59: 00               NOP
CC5A: 0F               RRCA
CC5B: FF               RST 0x38
CC5C: 00               NOP
CC5D: 00               NOP
CC5E: 00               NOP
CC5F: C3 FF 80         JP 0x80FF
CC62: 00               NOP
CC63: 1F               RRA
CC64: FF               RST 0x38
CC65: 00               NOP
CC66: 00               NOP
CC67: 0F               RRCA
CC68: FF               RST 0x38
CC69: F8               RET M
CC6A: 07               RLCA
CC6B: FF               RST 0x38
CC6C: FF               RST 0x38
CC6D: FF               RST 0x38
CC6E: 00               NOP
CC6F: 00               NOP
CC70: FF               RST 0x38
CC71: 01 FC 00         LD BC, 0x00FC
CC74: 7F               LD A, A
CC75: FC 0F FF         CALL M, 0xFF0F
CC78: 00               NOP
CC79: 00               NOP
CC7A: FF               RST 0x38
CC7B: C1               POP BC
CC7C: FF               RST 0x38
CC7D: 01 E0 C3         LD BC, 0xC3E0
CC80: F8               RET M
CC81: 00               NOP
CC82: 00               NOP
CC83: 00               NOP
CC84: 00               NOP
CC85: 00               NOP
CC86: 00               NOP
CC87: 00               NOP
CC88: 07               RLCA
CC89: FF               RST 0x38
CC8A: C0               RET NZ
CC8B: 1F               RRA
CC8C: 00               NOP
CC8D: 00               NOP
CC8E: FF               RST 0x38
CC8F: FF               RST 0x38
CC90: 00               NOP
CC91: 00               NOP
CC92: 00               NOP
CC93: 1F               RRA
CC94: FC 3F 01         CALL M, 0x013F
CC97: FF               RST 0x38
CC98: 00               NOP
CC99: 00               NOP
CC9A: FF               RST 0x38
CC9B: 00               NOP
CC9C: C7               RST 0x00
CC9D: F0               RET P
CC9E: 00               NOP
CC9F: C7               RST 0x00
CCA0: E0               RET PO
CCA1: 3E 00            LD A, 0x00
CCA3: F0               RET P
CCA4: 00               NOP
CCA5: 80               ADD A, B
CCA6: 00               NOP
CCA7: 3F               CCF
CCA8: 00               NOP
CCA9: 3F               CCF
CCAA: FE 03            CP 0x03
CCAC: FF               RST 0x38
CCAD: FF               RST 0x38
CCAE: FF               RST 0x38
CCAF: 00               NOP
CCB0: 01 F0 01         LD BC, 0x01F0
CCB3: FE 0F            CP 0x0F
CCB5: FF               RST 0x38
CCB6: 00               NOP
CCB7: 00               NOP
CCB8: 1F               RRA
CCB9: F8               RET M
CCBA: 00               NOP
CCBB: 00               NOP
CCBC: FC 7C 18         CALL M, 0x187C
CCBF: CF               RST 0x08
CCC0: 83               ADD A, E
CCC1: 00               NOP
CCC2: 3E FF            LD A, 0xFF
CCC4: FF               RST 0x38
CCC5: FE 03            CP 0x03
CCC7: 00               NOP
CCC8: 00               NOP
CCC9: 01 FF E0         LD BC, 0xE0FF
CCCC: 80               ADD A, B
CCCD: FF               RST 0x38
CCCE: FF               RST 0x38
CCCF: FE 03            CP 0x03
CCD1: FF               RST 0x38
CCD2: C0               RET NZ
CCD3: 3E FE            LD A, 0xFE
CCD5: 07               RLCA
CCD6: FE 00            CP 0x00
CCD8: 00               NOP
CCD9: 00               NOP
CCDA: 00               NOP
CCDB: FF               RST 0x38
CCDC: 0F               RRCA
CCDD: 70               LD (HL), B
CCDE: F9               LD SP, HL
CCDF: 00               NOP
CCE0: 0F               RRCA
CCE1: 87               ADD A, A
CCE2: 00               NOP
CCE3: 00               NOP
CCE4: FF               RST 0x38
CCE5: 00               NOP
CCE6: 00               NOP
CCE7: F0               RET P
CCE8: 3F               CCF
CCE9: E0               RET PO
CCEA: 00               NOP
CCEB: 00               NOP
CCEC: 00               NOP
CCED: FF               RST 0x38
CCEE: 00               NOP
CCEF: F0               RET P
CCF0: 07               RLCA
CCF1: FC 00 00         CALL M, 0x0000
CCF4: E1               POP HL
CCF5: FF               RST 0x38
CCF6: 00               NOP
CCF7: 00               NOP
CCF8: 00               NOP
CCF9: 00               NOP
CCFA: 00               NOP
CCFB: 07               RLCA
CCFC: E3               EX (SP), HL
CCFD: 00               NOP
CCFE: 79               LD A, C
CCFF: 18 7C            JR 0xCD7D
CD01: 00               NOP
CD02: 00               NOP
CD03: 00               NOP
CD04: 00               NOP
CD05: 00               NOP
CD06: 00               NOP
CD07: 00               NOP
CD08: C7               RST 0x00
CD09: FC 01 FC         CALL M, 0xFC01
CD0C: 00               NOP
CD0D: 00               NOP
CD0E: 00               NOP
CD0F: C0               RET NZ
CD10: 1F               RRA
CD11: F0               RET P
CD12: 00               NOP
CD13: 00               NOP
CD14: 1F               RRA
CD15: F0               RET P
CD16: 00               NOP
CD17: 00               NOP
CD18: 00               NOP
CD19: 00               NOP
CD1A: 00               NOP
CD1B: 00               NOP
CD1C: F3               DI
CD1D: 00               NOP
CD1E: F7               RST 0x30
CD1F: 00               NOP
CD20: C7               RST 0x00
CD21: 38 03            JR C, 0xCD26
CD23: FF               RST 0x38
CD24: FF               RST 0x38
CD25: F8               RET M
CD26: 01 F8 F0         LD BC, 0xF0F8
CD29: 7F               LD A, A
CD2A: 00               NOP
CD2B: 00               NOP
CD2C: 00               NOP
CD2D: 00               NOP
CD2E: FF               RST 0x38
CD2F: E0               RET PO
CD30: 7F               LD A, A
CD31: E0               RET PO
CD32: 00               NOP
CD33: FC 3F 80         CALL M, 0x803F
CD36: 1F               RRA
CD37: 00               NOP
CD38: 00               NOP
CD39: 00               NOP
CD3A: 1E 03            LD E, 0x03
CD3C: E3               EX (SP), HL
CD3D: 00               NOP
CD3E: 20 1E            JR NZ, 0xCD5E
CD40: 80               ADD A, B
CD41: 03               INC BC
CD42: FF               RST 0x38
CD43: F8               RET M
CD44: FF               RST 0x38
CD45: FF               RST 0x38
CD46: 00               NOP
CD47: 00               NOP
CD48: 03               INC BC
CD49: 3F               CCF
CD4A: C0               RET NZ
CD4B: 00               NOP
CD4C: 00               NOP
CD4D: FF               RST 0x38
CD4E: 00               NOP
CD4F: 80               ADD A, B
CD50: 7F               LD A, A
CD51: C0               RET NZ
CD52: 1C               INC E
CD53: 03               INC BC
CD54: 7F               LD A, A
CD55: C0               RET NZ
CD56: 00               NOP
CD57: 00               NOP
CD58: 00               NOP
CD59: 00               NOP
CD5A: 00               NOP
CD5B: 1F               RRA
CD5C: C3 1C 00         JP 0x001C
CD5F: 18 00            JR 0xCD61
CD61: 7F               LD A, A
CD62: C0               RET NZ
CD63: 00               NOP
CD64: 00               NOP
CD65: FF               RST 0x38
CD66: E0               RET PO
CD67: 00               NOP
CD68: 01 3F E0         LD BC, 0xE03F
CD6B: 00               NOP
CD6C: 00               NOP
CD6D: 00               NOP
CD6E: FF               RST 0x38
CD6F: E0               RET PO
CD70: 7F               LD A, A
CD71: E0               RET PO
CD72: 00               NOP
CD73: 03               INC BC
CD74: 3F               CCF
CD75: E0               RET PO
CD76: 00               NOP
CD77: 00               NOP
CD78: 00               NOP
CD79: 00               NOP
CD7A: 01 F3 00         LD BC, 0x00F3
CD7D: 11 8E C0         LD DE, 0xC08E
CD80: 07               RLCA
CD81: FE 03            CP 0x03
CD83: 01 00 FF         LD BC, 0xFF00
CD86: E0               RET PO
CD87: 00               NOP
CD88: FC 1F C0         CALL M, 0xC01F
CD8B: 1E 00            LD E, 0x00
CD8D: FF               RST 0x38
CD8E: 00               NOP
CD8F: C0               RET NZ
CD90: 1F               RRA
CD91: F0               RET P
CD92: 00               NOP
CD93: 00               NOP
CD94: 07               RLCA
CD95: FC 00 00         CALL M, 0x0000
CD98: 00               NOP
CD99: 00               NOP
CD9A: 7E               LD A, (HL)
CD9B: 3F               CCF
CD9C: 87               ADD A, A
CD9D: C0               RET NZ
CD9E: 3C               INC A
CD9F: 06 03            LD B, 0x03
CDA1: FC 00 00         CALL M, 0x0000
CDA4: 07               RLCA
CDA5: FF               RST 0x38
CDA6: 80               ADD A, B
CDA7: 38 F8            JR C, 0xCDA1
CDA9: 7F               LD A, A
CDAA: 00               NOP
CDAB: 00               NOP
CDAC: 00               NOP
CDAD: 00               NOP
CDAE: 00               NOP
CDAF: F0               RET P
CDB0: 0F               RRCA
CDB1: FC 00 00         CALL M, 0x0000
CDB4: 0F               RRCA
CDB5: 7F               LD A, A
CDB6: FE 00            CP 0x00
CDB8: 01 FF 38         LD BC, 0x38FF
CDBB: 00               NOP
CDBC: 3C               INC A
CDBD: 00               NOP
CDBE: 3C               INC A
CDBF: 80               ADD A, B
CDC0: 00               NOP
CDC1: FF               RST 0x38
CDC2: FF               RST 0x38
CDC3: FF               RST 0x38
CDC4: FF               RST 0x38
CDC5: 00               NOP
CDC6: 00               NOP
CDC7: 00               NOP
CDC8: C1               POP BC
CDC9: FC 00 00         CALL M, 0x0000
CDCC: 00               NOP
CDCD: 00               NOP
CDCE: 00               NOP
CDCF: 03               INC BC
CDD0: FF               RST 0x38
CDD1: F0               RET P
CDD2: 07               RLCA
CDD3: C0               RET NZ
CDD4: C1               POP BC
CDD5: FF               RST 0x38
CDD6: 00               NOP
CDD7: 00               NOP
CDD8: 00               NOP
CDD9: 00               NOP
CDDA: 00               NOP
CDDB: 07               RLCA
CDDC: F1               POP AF
CDDD: 0C               INC C
CDDE: 1F               RRA
CDDF: 80               ADD A, B
CDE0: 03               INC BC
CDE1: F0               RET P
CDE2: 00               NOP
CDE3: 00               NOP
CDE4: 58               LD E, B
CDE5: 00               NOP
CDE6: 01 07 FC         LD BC, 0xFC07
CDE9: 00               NOP
CDEA: 00               NOP
CDEB: 00               NOP
CDEC: 1F               RRA
CDED: 00               NOP
CDEE: FF               RST 0x38
CDEF: 07               RLCA
CDF0: FF               RST 0x38
CDF1: 80               ADD A, B
CDF2: 00               NOP
CDF3: 03               INC BC
CDF4: 1F               RRA
CDF5: C0               RET NZ
CDF6: 00               NOP
CDF7: 00               NOP
CDF8: 00               NOP
CDF9: 00               NOP
CDFA: 00               NOP
CDFB: 80               ADD A, B
CDFC: 7C               LD A, H
CDFD: 80               ADD A, B
CDFE: 1C               INC E
CDFF: 8E               ADC A, (HL)
CE00: 1F               RRA
CE01: E0               RET PO
CE02: 00               NOP
CE03: 00               NOP
CE04: 00               NOP
CE05: 0F               RRCA
CE06: 00               NOP
CE07: 03               INC BC
CE08: 7F               LD A, A
CE09: C0               RET NZ
CE0A: 1F               RRA
CE0B: 00               NOP
CE0C: 0F               RRCA
CE0D: FF               RST 0x38
CE0E: FF               RST 0x38
CE0F: 1F               RRA
CE10: FE 00            CP 0x00
CE12: 00               NOP
CE13: 0E FE            LD C, 0xFE
CE15: 01 00 00         LD BC, 0x0000
CE18: 00               NOP
CE19: 00               NOP
CE1A: 00               NOP
CE1B: 00               NOP
CE1C: 3E 80            LD A, 0x80
CE1E: 39               ADD HL, SP
CE1F: 00               NOP
CE20: F1               POP AF
CE21: 0F               RRCA
CE22: 00               NOP
CE23: 03               INC BC
CE24: A0               AND B
CE25: 00               NOP
CE26: 1F               RRA
CE27: 80               ADD A, B
CE28: 07               RLCA
CE29: F0               RET P
CE2A: 00               NOP
CE2B: 00               NOP
CE2C: 03               INC BC
CE2D: FF               RST 0x38
CE2E: 00               NOP
CE2F: 7F               LD A, A
CE30: FE 01            CP 0x01
CE32: 00               NOP
CE33: C3 F8 03         JP 0x03F8
CE36: C0               RET NZ
CE37: 00               NOP
CE38: 00               NOP
CE39: 00               NOP
CE3A: 00               NOP
CE3B: E0               RET PO
CE3C: 79               LD A, C
CE3D: 00               NOP
CE3E: 10 8F            DJNZ 0xCDCF
CE40: C0               RET NZ
CE41: C0               RET NZ
CE42: 1F               RRA
CE43: FF               RST 0x38
CE44: FF               RST 0x38
CE45: F0               RET P
CE46: 00               NOP
CE47: 00               NOP
CE48: 3E FC            LD A, 0xFC
CE4A: 01 00 00         LD BC, 0x0000
CE4D: 00               NOP
CE4E: FF               RST 0x38
CE4F: 3F               CCF
CE50: FC 01 C0         CALL M, 0xC001
CE53: 3C               INC A
CE54: FC 03 00         CALL M, 0x0003
CE57: 00               NOP
CE58: 00               NOP
CE59: 00               NOP
CE5A: 00               NOP
CE5B: 07               RLCA
CE5C: 30 8E            JR NC, 0xCDEC
CE5E: 80               ADD A, B
CE5F: 0C               INC C
CE60: 00               NOP
CE61: 07               RLCA
CE62: FF               RST 0x38
CE63: FF               RST 0x38
CE64: FF               RST 0x38
CE65: FC 00 00         CALL M, 0x0000
CE68: 0E FE            LD C, 0xFE
CE6A: 03               INC BC
CE6B: 00               NOP
CE6C: 01 FF 00         LD BC, 0x00FF
CE6F: 7F               LD A, A
CE70: FE 01            CP 0x01
CE72: 00               NOP
CE73: 1E FC            LD E, 0xFC
CE75: 00               NOP
CE76: 00               NOP
CE77: 00               NOP
CE78: 00               NOP
CE79: 00               NOP
CE7A: C0               RET NZ
CE7B: 7C               LD A, H
CE7C: 00               NOP
CE7D: 88               ADC A, B
CE7E: 43               LD B, E
CE7F: 60               LD H, B
CE80: E0               RET PO
CE81: 7F               LD A, A
CE82: FF               RST 0x38
CE83: 00               NOP
CE84: FF               RST 0x38
CE85: FE 01            CP 0x01
CE87: 00               NOP
CE88: C1               POP BC
CE89: FC 03 C0         CALL M, 0xC003
CE8C: 00               NOP
CE8D: 00               NOP
CE8E: FF               RST 0x38
CE8F: 0F               RRCA
CE90: FE 00            CP 0x00
CE92: 00               NOP
CE93: 07               RLCA
CE94: 7F               LD A, A
CE95: 80               ADD A, B
CE96: 00               NOP
CE97: 00               NOP
CE98: 00               NOP
CE99: C0               RET NZ
CE9A: 0F               RRCA
CE9B: 8F               ADC A, A
CE9C: C3 20 8F         JP 0x8F20
CE9F: C1               POP BC
CEA0: C0               RET NZ
CEA1: 3F               CCF
CEA2: FF               RST 0x38
CEA3: FF               RST 0x38
CEA4: FF               RST 0x38
CEA5: E0               RET PO
CEA6: 07               RLCA
CEA7: 80               ADD A, B
CEA8: 87               ADD A, A
CEA9: F8               RET M
CEAA: 00               NOP
CEAB: 00               NOP
CEAC: 03               INC BC
CEAD: FF               RST 0x38
CEAE: FF               RST 0x38
CEAF: 07               RLCA
CEB0: FF               RST 0x38
CEB1: 80               ADD A, B
CEB2: 00               NOP
CEB3: 00               NOP
CEB4: F0               RET P
CEB5: FF               RST 0x38
CEB6: 00               NOP
CEB7: 00               NOP
CEB8: 00               NOP
CEB9: 07               RLCA
CEBA: 07               RLCA
CEBB: 00               NOP
CEBC: 0F               RRCA
CEBD: C0               RET NZ
CEBE: 0F               RRCA
CEBF: 60               LD H, B
CEC0: 00               NOP
CEC1: 03               INC BC
CEC2: FF               RST 0x38
CEC3: FF               RST 0x38
CEC4: F0               RET P
CEC5: 00               NOP
CEC6: 00               NOP
CEC7: 03               INC BC
CEC8: 3F               CCF
CEC9: C0               RET NZ
CECA: 00               NOP
CECB: 00               NOP
CECC: 0F               RRCA
CECD: FF               RST 0x38
CECE: FF               RST 0x38
CECF: FF               RST 0x38
CED0: FC 00 F8         CALL M, 0xF800
CED3: 07               RLCA
CED4: 3F               CCF
CED5: C0               RET NZ
CED6: 03               INC BC
CED7: 00               NOP
CED8: 00               NOP
CED9: 00               NOP
CEDA: 00               NOP
CEDB: 80               ADD A, B
CEDC: 7E               LD A, (HL)
CEDD: C3 87 30         JP 0x3087
CEE0: 60               LD H, B
CEE1: 7E               LD A, (HL)
CEE2: F0               RET P
CEE3: 00               NOP
CEE4: 00               NOP
CEE5: 00               NOP
CEE6: 3F               CCF
CEE7: 7F               LD A, A
CEE8: C0               RET NZ
CEE9: 0F               RRCA
CEEA: 00               NOP
CEEB: 0F               RRCA
CEEC: C0               RET NZ
CEED: FF               RST 0x38
CEEE: 00               NOP
CEEF: FF               RST 0x38
CEF0: E0               RET PO
CEF1: 03               INC BC
CEF2: 00               NOP
CEF3: 3C               INC A
CEF4: FC 01 00         CALL M, 0x0001
CEF7: 00               NOP
CEF8: 00               NOP
CEF9: 00               NOP
CEFA: 00               NOP
CEFB: 3C               INC A
CEFC: 0F               RRCA
CEFD: E0               RET PO
CEFE: 87               ADD A, A
CEFF: C3 07 38         JP 0x3807
CF02: 00               NOP
CF03: 00               NOP
CF04: 00               NOP
CF05: F8               RET M
CF06: 00               NOP
CF07: 3C               INC A
CF08: FE 01            CP 0x01
CF0A: F0               RET P
CF0B: 07               RLCA
CF0C: FC 00 00         CALL M, 0x0000
CF0F: FF               RST 0x38
CF10: 80               ADD A, B
CF11: 0F               RRCA
CF12: 00               NOP
CF13: E0               RET PO
CF14: E0               RET PO
CF15: 1F               RRA
CF16: 00               NOP
CF17: 1F               RRA
CF18: FF               RST 0x38
CF19: FF               RST 0x38
CF1A: E0               RET PO
CF1B: 00               NOP
CF1C: 0F               RRCA
CF1D: 40               LD B, B
CF1E: 1C               INC E
CF1F: 00               NOP
CF20: 3C               INC A
CF21: 81               ADD A, C
CF22: F0               RET P
CF23: 00               NOP
CF24: 00               NOP
CF25: 07               RLCA
CF26: F0               RET P
CF27: 07               RLCA
CF28: 7F               LD A, A
CF29: 80               ADD A, B
CF2A: 00               NOP
CF2B: 01 FE 00         LD BC, 0x00FE
CF2E: FF               RST 0x38
CF2F: FF               RST 0x38
CF30: 80               ADD A, B
CF31: 3E 03            LD A, 0x03
CF33: 3F               CCF
CF34: 80               ADD A, B
CF35: 38 00            JR C, 0xCF37
CF37: 7F               LD A, A
CF38: C0               RET NZ
CF39: 7F               LD A, A
CF3A: C0               RET NZ
CF3B: 18 1E            JR 0xCF5B
CF3D: 80               ADD A, B
CF3E: 88               ADC A, B
CF3F: 43               LD B, E
CF40: 30 30            JR NC, 0xCF72
CF42: 00               NOP
CF43: 7F               LD A, A
CF44: E0               RET PO
CF45: 00               NOP
CF46: 00               NOP
CF47: 01 E0 C0         LD BC, 0xC0E0
CF4A: 3C               INC A
CF4B: 00               NOP
CF4C: 7E               LD A, (HL)
CF4D: FF               RST 0x38
CF4E: 00               NOP
CF4F: FF               RST 0x38
CF50: 80               ADD A, B
CF51: 1E 01            LD E, 0x01
CF53: C0               RET NZ
CF54: C0               RET NZ
CF55: 7C               LD A, H
CF56: 00               NOP
CF57: 3F               CCF
CF58: FF               RST 0x38
CF59: F8               RET M
CF5A: 00               NOP
CF5B: C1               POP BC
CF5C: 08               EX AF, AF'
CF5D: 47               LD B, A
CF5E: C0               RET NZ
CF5F: C3 00 00         JP 0x0000
CF62: 7F               LD A, A
CF63: FF               RST 0x38
CF64: FF               RST 0x38
CF65: 00               NOP
CF66: 0E 00            LD C, 0x00
CF68: E0               RET PO
CF69: E0               RET PO
CF6A: 3E 00            LD A, 0x00
CF6C: FF               RST 0x38
CF6D: 00               NOP
CF6E: FF               RST 0x38
CF6F: FF               RST 0x38
CF70: C0               RET NZ
CF71: 1F               RRA
CF72: 01 E0 C0         LD BC, 0xC0E0
CF75: 0F               RRCA
CF76: 00               NOP
CF77: 00               NOP
CF78: 00               NOP
CF79: 00               NOP
CF7A: 38 1E            JR C, 0xCF9A
CF7C: 80               ADD A, B
CF7D: C6 21            ADD A, 0x21
CF7F: 18 38            JR 0xCFB9
CF81: 07               RLCA
CF82: FF               RST 0x38
CF83: 00               NOP
CF84: FF               RST 0x38
CF85: 80               ADD A, B
CF86: 3F               CCF
CF87: 01 1F C0         LD BC, 0xC01F
CF8A: 3C               INC A
CF8B: 00               NOP
CF8C: FC FF 00         CALL M, 0x00FF
CF8F: FF               RST 0x38
CF90: C0               RET NZ
CF91: 07               RLCA
CF92: 00               NOP
CF93: 78               LD A, B
CF94: F8               RET M
CF95: 00               NOP
CF96: 00               NOP
CF97: 00               NOP
CF98: 00               NOP
CF99: 7E               LD A, (HL)
CF9A: 03               INC BC
CF9B: E3               EX (SP), HL
CF9C: 30 18            JR NC, 0xCFB6
CF9E: C3 30 38         JP 0x3830
CFA1: 00               NOP
CFA2: FF               RST 0x38
CFA3: FF               RST 0x38
CFA4: E0               RET PO
CFA5: 00               NOP
CFA6: F0               RET P
CFA7: 07               RLCA
CFA8: 7F               LD A, A
CFA9: 00               NOP
CFAA: 00               NOP
CFAB: 03               INC BC
CFAC: FC 00 00         CALL M, 0x0000
CFAF: FF               RST 0x38
CFB0: F0               RET P
CFB1: 01 00 07         LD BC, 0x0700
CFB4: 00               NOP
CFB5: E0               RET PO
CFB6: 00               NOP
CFB7: 7F               LD A, A
CFB8: F0               RET P
CFB9: 00               NOP
CFBA: 00               NOP
CFBB: C0               RET NZ
CFBC: 83               ADD A, E
CFBD: 30 C1            JR NC, 0xCF80
CFBF: 1C               INC E
CFC0: 00               NOP
CFC1: 80               ADD A, B
CFC2: 00               NOP
CFC3: 00               NOP
CFC4: 00               NOP
CFC5: 00               NOP
CFC6: 00               NOP
CFC7: 7C               LD A, H
CFC8: F8               RET M
CFC9: 03               INC BC
CFCA: 00               NOP
CFCB: 0F               RRCA
CFCC: F8               RET M
CFCD: 00               NOP
CFCE: FF               RST 0x38
CFCF: FC 00 1F         CALL M, 0x1F00
CFD2: 00               NOP
CFD3: 78               LD A, B
CFD4: F8               RET M
CFD5: 01 F0 00         LD BC, 0x00F0
CFD8: 00               NOP
CFD9: 00               NOP
CFDA: 00               NOP
CFDB: 1C               INC E
CFDC: 07               RLCA
CFDD: 30 61            JR NC, 0xD040
CFDF: 0C               INC C
CFE0: 18 1F            JR 0xD001
CFE2: 1F               RRA
CFE3: C0               RET NZ
CFE4: 00               NOP
CFE5: 1F               RRA
CFE6: F0               RET P
CFE7: FC 00 F0         CALL M, 0xF000
CFEA: 03               INC BC
CFEB: E0               RET PO
CFEC: 00               NOP
CFED: FF               RST 0x38
CFEE: 00               NOP
CFEF: E0               RET PO
CFF0: 00               NOP
CFF1: 78               LD A, B
CFF2: 07               RLCA
CFF3: C0               RET NZ
CFF4: 80               ADD A, B
CFF5: 3C               INC A
CFF6: 00               NOP
CFF7: 7F               LD A, A
CFF8: C0               RET NZ
CFF9: 01 F8 03         LD BC, 0x03F8
CFFC: 81               ADD A, C
CFFD: 18 43            JR 0xD042
CFFF: 30 C1            JR NC, 0xCFC2
D001: 07               RLCA
D002: 00               NOP
D003: 00               NOP
D004: 00               NOP
D005: 00               NOP
D006: 07               RLCA
D007: 80               ADD A, B
D008: E0               RET PO
D009: 3E 00            LD A, 0x00
D00B: FC 00 00         CALL M, 0x0000
D00E: 00               NOP
D00F: C0               RET NZ
D010: 01 E0 0E         LD BC, 0x0EE0
D013: 01 03 E0         LD BC, 0xE003
D016: 0F               RRCA
D017: E0               RET PO
D018: 00               NOP
D019: 00               NOP
D01A: 3F               CCF
D01B: 00               NOP
D01C: C3 10 87         JP 0x8710
D01F: C0               RET NZ
D020: 1F               RRA
D021: E0               RET PO
D022: 3F               CCF
D023: E0               RET PO
D024: 07               RLCA
D025: FF               RST 0x38
D026: 00               NOP
D027: 7C               LD A, H
D028: F8               RET M
D029: 07               RLCA
D02A: 00               NOP
D02B: 3F               CCF
D02C: 00               NOP
D02D: 00               NOP
D02E: FF               RST 0x38
D02F: C0               RET NZ
D030: 03               INC BC
D031: E0               RET PO
D032: 3E F8            LD A, 0xF8
D034: 07               RLCA
D035: 80               ADD A, B
D036: 3F               CCF
D037: 00               NOP
D038: 00               NOP
D039: 00               NOP
D03A: 3C               INC A
D03B: 07               RLCA
D03C: 07               RLCA
D03D: C0               RET NZ
D03E: C4 21 1C         CALL NZ, 0x1C21
D041: 0F               RRCA
D042: 00               NOP
D043: 00               NOP
D044: 00               NOP
D045: 03               INC BC
D046: 00               NOP
D047: 1F               RRA
D048: 01 01 C0         LD BC, 0xC001
D04B: 1F               RRA
D04C: 00               NOP
D04D: FF               RST 0x38
D04E: 00               NOP
D04F: 80               ADD A, B
D050: 03               INC BC
D051: C0               RET NZ
D052: 1C               INC E
D053: 03               INC BC
D054: 07               RLCA
D055: C0               RET NZ
D056: 1F               RRA
D057: E0               RET PO
D058: 00               NOP
D059: 0F               RRCA
D05A: C0               RET NZ
D05B: 70               LD (HL), B
D05C: 84               ADD A, H
D05D: 23               INC HL
D05E: 60               LD H, B
D05F: E0               RET PO
D060: C0               RET NZ
D061: E0               RET PO
D062: 00               NOP
D063: 00               NOP
D064: 00               NOP
D065: 01 E0 0E         LD BC, 0x0EE0
D068: 01 03 E0         LD BC, 0xE003
D06B: 1F               RRA
D06C: 80               ADD A, B
D06D: 00               NOP
D06E: FF               RST 0x38
D06F: E0               RET PO
D070: 03               INC BC
D071: F0               RET P
D072: 1E 01            LD E, 0x01
D074: 01 E0 01         LD BC, 0x01E0
D077: FF               RST 0x38
D078: FF               RST 0x38
D079: E0               RET PO
D07A: 0E 07            LD C, 0x07
D07C: 60               LD H, B
D07D: E1               POP HL
D07E: 18 86            JR 0xD006
D080: 07               RLCA
D081: 80               ADD A, B
D082: 07               RLCA
D083: 03               INC BC
D084: 00               NOP
D085: 07               RLCA
D086: E0               RET PO
D087: 1E FC            LD E, 0xFC
D089: 03               INC BC
D08A: 80               ADD A, B
D08B: 1E 00            LD E, 0x00
D08D: FF               RST 0x38
D08E: 00               NOP
D08F: E0               RET PO
D090: 00               NOP
D091: F8               RET M
D092: 07               RLCA
D093: C0               RET NZ
D094: C0               RET NZ
D095: 1F               RRA
D096: 00               NOP
D097: 00               NOP
D098: 00               NOP
D099: 03               INC BC
D09A: C0               RET NZ
D09B: 78               LD A, B
D09C: 08               EX AF, AF'
D09D: 86               ADD A, (HL)
D09E: 30 06            JR NC, 0xD0A6
D0A0: 03               INC BC
D0A1: C0               RET NZ
D0A2: 00               NOP
D0A3: 00               NOP
D0A4: 00               NOP
D0A5: 3E 00            LD A, 0x00
D0A7: F0               RET P
D0A8: F0               RET P
D0A9: 0F               RRCA
D0AA: 00               NOP
D0AB: 7E               LD A, (HL)
D0AC: 00               NOP
D0AD: 00               NOP
D0AE: 00               NOP
D0AF: F0               RET P
D0B0: 00               NOP
D0B1: 1E 00            LD E, 0x00
D0B3: 70               LD (HL), B
D0B4: 03               INC BC
D0B5: 00               NOP
D0B6: 7F               LD A, A
D0B7: FF               RST 0x38
D0B8: FF               RST 0x38
D0B9: E0               RET PO
D0BA: F0               RET P
D0BB: 30 60            JR NC, 0xD11D
D0BD: 0C               INC C
D0BE: 30 83            JR NC, 0xD043
D0C0: C0               RET NZ
D0C1: 3F               CCF
D0C2: D0               RET NC
D0C3: 01 FF 00         LD BC, 0x00FF
D0C6: 0F               RRCA
D0C7: 00               NOP
D0C8: 00               NOP
D0C9: 38 03            JR C, 0xD0CE
D0CB: F8               RET M
D0CC: 00               NOP
D0CD: 00               NOP
D0CE: 00               NOP
D0CF: 00               NOP
D0D0: 07               RLCA
D0D1: E0               RET PO
D0D2: 0F               RRCA
D0D3: 80               ADD A, B
D0D4: 00               NOP
D0D5: 3C               INC A
D0D6: 00               NOP
D0D7: 7F               LD A, A
D0D8: FF               RST 0x38
D0D9: FF               RST 0x38
D0DA: FC 01 C0         CALL M, 0xC001
D0DD: 0E 18            LD C, 0x18
D0DF: 83               ADD A, E
D0E0: 06 03            LD B, 0x03
D0E2: 01 FF 00         LD BC, 0x00FF
D0E5: FC 00 C0         CALL M, 0xC000
D0E8: 0F               RRCA
D0E9: 00               NOP
D0EA: 7C               LD A, H
D0EB: 00               NOP
D0EC: 0F               RRCA
D0ED: 00               NOP
D0EE: FF               RST 0x38
D0EF: 00               NOP
D0F0: 0F               RRCA
D0F1: 00               NOP
D0F2: 7C               LD A, H
D0F3: 07               RLCA
D0F4: 07               RLCA
D0F5: 80               ADD A, B
D0F6: 1F               RRA
D0F7: 00               NOP
D0F8: 00               NOP
D0F9: 00               NOP
D0FA: 01 C0 30         LD BC, 0x30C0
D0FD: 86               ADD A, (HL)
D0FE: 10 0C            DJNZ 0xD10C
D100: 30 80            JR NC, 0xD082
D102: F0               RET P
D103: 00               NOP
D104: 00               NOP
D105: 00               NOP
D106: F8               RET M
D107: 01 01 F0         LD BC, 0xF001
D10A: 1F               RRA
D10B: 80               ADD A, B
D10C: 07               RLCA
D10D: FF               RST 0x38
D10E: FF               RST 0x38
D10F: 00               NOP
D110: 3E 00            LD A, 0x00
D112: E0               RET PO
D113: 1F               RRA
D114: 3E 03            LD A, 0x03
D116: F0               RET P
D117: 00               NOP
D118: 02               LD (BC), A
D119: 00               NOP
D11A: 00               NOP
D11B: F0               RET P
D11C: 70               LD (HL), B
D11D: 0C               INC C
D11E: 63               LD H, E
D11F: 60               LD H, B
D120: 07               RLCA
D121: 3C               INC A
D122: 01 FF FF         LD BC, 0xFFFF
D125: 80               ADD A, B
D126: 07               RLCA
D127: C0               RET NZ
D128: 80               ADD A, B
D129: 38 07            JR C, 0xD132
D12B: C0               RET NZ
D12C: 03               INC BC
D12D: FF               RST 0x38
D12E: 00               NOP
D12F: 00               NOP
D130: FE 01            CP 0x01
D132: E0               RET PO
D133: C0               RET NZ
D134: 38 03            JR C, 0xD139
D136: C0               RET NZ
D137: 00               NOP
D138: 00               NOP
D139: 00               NOP
D13A: 03               INC BC
D13B: 00               NOP
D13C: C3 30 E2         JP 0xE230
D13F: 18 87            JR 0xD0C8
D141: 00               NOP
D142: F8               RET M
D143: 00               NOP
D144: 01 F8 01         LD BC, 0x01F8
D147: F0               RET P
D148: 1F               RRA
D149: 1C               INC E
D14A: 01 E0 00         LD BC, 0x00E0
D14D: 00               NOP
D14E: FF               RST 0x38
D14F: 00               NOP
D150: 7C               LD A, H
D151: 00               NOP
D152: C0               RET NZ
D153: 3F               CCF
D154: 7C               LD A, H
D155: 03               INC BC
D156: F0               RET P
D157: 00               NOP
D158: 00               NOP
D159: 00               NOP
D15A: 7C               LD A, H
D15B: 1C               INC E
D15C: C3 11 30         JP 0x3011
D15F: 78               LD A, B
D160: 30 1E            JR NC, 0xD180
D162: 00               NOP
D163: 00               NOP
D164: 00               NOP
D165: 7C               LD A, H
D166: 00               NOP
D167: E0               RET PO
D168: 0F               RRCA
D169: 3E 03            LD A, 0x03
D16B: E0               RET PO
D16C: 01 FF 00         LD BC, 0x00FF
D16F: 00               NOP
D170: 7E               LD A, (HL)
D171: 00               NOP
D172: F0               RET P
D173: 1F               RRA
D174: 0E 00            LD C, 0x00
D176: 7F               LD A, A
D177: 80               ADD A, B
D178: 00               NOP
D179: 7F               LD A, A
D17A: 01 83 30         LD BC, 0x3083
D17D: 78               LD A, B
D17E: 06 E1            LD B, 0xE1
D180: C0               RET NZ
D181: FC 00 FF         CALL M, 0xFF00
D184: 01 FC 03         LD BC, 0x03FC
D187: E0               RET PO
D188: C0               RET NZ
D189: 38 00            JR C, 0xD18B
D18B: C0               RET NZ
D18C: 00               NOP
D18D: 00               NOP
D18E: FF               RST 0x38
D18F: 00               NOP
D190: 1F               RRA
D191: 00               NOP
D192: 7C               LD A, H
D193: 03               INC BC
D194: 01 E0 00         LD BC, 0x00E0
D197: 0F               RRCA
D198: F0               RET P
D199: 00               NOP
D19A: 38 1E            JR C, 0xD1BA
D19C: 06 E3            LD B, 0xE3
D19E: 0C               INC C
D19F: C0               RET NZ
D1A0: 00               NOP
D1A1: 1F               RRA
D1A2: 80               ADD A, B
D1A3: 00               NOP
D1A4: 7F               LD A, A
D1A5: 80               ADD A, B
D1A6: 0F               RRCA
D1A7: 00               NOP
D1A8: 01 F0 0F         LD BC, 0x0FF0
D1AB: 80               ADD A, B
D1AC: 07               RLCA
D1AD: FF               RST 0x38
D1AE: FF               RST 0x38
D1AF: 00               NOP
D1B0: 03               INC BC
D1B1: C0               RET NZ
D1B2: 07               RLCA
D1B3: 80               ADD A, B
D1B4: 3F               CCF
D1B5: 0F               RRCA
D1B6: F0               RET P
D1B7: 00               NOP
D1B8: 00               NOP
D1B9: 7E               LD A, (HL)
D1BA: FC 0E 08         CALL M, 0x080E
D1BD: C3 06 F0         JP 0xF006
D1C0: 3C               INC A
D1C1: 00               NOP
D1C2: 1F               RRA
D1C3: FE 00            CP 0x00
D1C5: 03               INC BC
D1C6: F0               RET P
D1C7: 0F               RRCA
D1C8: 07               RLCA
D1C9: 00               NOP
D1CA: 7E               LD A, (HL)
D1CB: 00               NOP
D1CC: 1F               RRA
D1CD: FF               RST 0x38
D1CE: 00               NOP
D1CF: 07               RLCA
D1D0: F8               RET M
D1D1: 00               NOP
D1D2: F0               RET P
D1D3: 0F               RRCA
D1D4: 07               RLCA
D1D5: 00               NOP
D1D6: 00               NOP
D1D7: 80               ADD A, B
D1D8: 00               NOP
D1D9: 00               NOP
D1DA: 03               INC BC
D1DB: 00               NOP
D1DC: 18 C3            JR 0xD1A1
D1DE: 06 E0            LD B, 0xE0
D1E0: C1               POP BC
D1E1: C0               RET NZ
D1E2: C0               RET NZ
D1E3: 00               NOP
D1E4: 00               NOP
D1E5: 00               NOP
D1E6: 07               RLCA
D1E7: 00               NOP
D1E8: F0               RET P
D1E9: 07               RLCA
D1EA: 80               ADD A, B
D1EB: 07               RLCA
D1EC: FF               RST 0x38
D1ED: 00               NOP
D1EE: FF               RST 0x38
D1EF: 0F               RRCA
D1F0: C0               RET NZ
D1F1: 00               NOP
D1F2: 80               ADD A, B
D1F3: 7F               LD A, A
D1F4: 70               LD (HL), B
D1F5: 03               INC BC
D1F6: 80               ADD A, B
D1F7: 00               NOP
D1F8: FF               RST 0x38
D1F9: FE 00            CP 0x00
D1FB: 1C               INC E
D1FC: 0C               INC C
D1FD: E1               POP HL
D1FE: 0C               INC C
D1FF: C7               RST 0x00
D200: 1C               INC E
D201: E0               RET PO
D202: 0F               RRCA
D203: C0               RET NZ
D204: 00               NOP
D205: 7F               LD A, A
D206: 00               NOP
D207: 1F               RRA
D208: 1F               RRA
D209: 00               NOP
D20A: F0               RET P
D20B: 03               INC BC
D20C: FF               RST 0x38
D20D: FF               RST 0x38
D20E: FF               RST 0x38
D20F: 1F               RRA
D210: 80               ADD A, B
D211: 0E 01            LD C, 0x01
D213: FC E0 3E         CALL M, 0x3EE0
D216: 00               NOP
D217: 7F               LD A, A
D218: FF               RST 0x38
D219: FF               RST 0x38
D21A: E0               RET PO
D21B: 1E 0C            LD E, 0x0C
D21D: C2 11 30         JP NZ, 0x3011
D220: C1               POP BC
D221: 0F               RRCA
D222: 00               NOP
D223: 00               NOP
D224: 00               NOP
D225: 00               NOP
D226: FC 03 03         CALL M, 0x0303
D229: 80               ADD A, B
D22A: 7C               LD A, H
D22B: 01 FF FF         LD BC, 0xFFFF
D22E: 00               NOP
D22F: 7F               LD A, A
D230: 80               ADD A, B
D231: 3E 03            LD A, 0x03
D233: 03               INC BC
D234: 80               ADD A, B
D235: 38 00            JR C, 0xD237
D237: 7F               LD A, A
D238: FF               RST 0x38
D239: FF               RST 0x38
D23A: 00               NOP
D23B: 00               NOP
D23C: 30 18            JR NC, 0xD256
D23E: 71               LD (HL), C
D23F: 8C               ADC A, H
D240: E1               POP HL
D241: 00               NOP
D242: 07               RLCA
D243: FF               RST 0x38
D244: FC 00 1F         CALL M, 0x1F00
D247: 01 FE C0         LD BC, 0xC0FE
D24A: 1C               INC E
D24B: 00               NOP
D24C: 7F               LD A, A
D24D: 00               NOP
D24E: FF               RST 0x38
D24F: 3F               CCF
D250: 00               NOP
D251: 00               NOP
D252: 01 FC C0         LD BC, 0xC0FC
D255: 3E 00            LD A, 0x00
D257: 0F               RRCA
D258: FF               RST 0x38
D259: C0               RET NZ
D25A: 07               RLCA
D25B: 07               RLCA
D25C: F1               POP AF
D25D: 08               EX AF, AF'
D25E: 98               SBC A, B
D25F: 1C               INC E
D260: 0C               INC C
D261: 01 FF 03         LD BC, 0x03FF
D264: FF               RST 0x38
D265: 80               ADD A, B
D266: 0F               RRCA
D267: 00               NOP
D268: FE E0            CP 0xE0
D26A: 3E 00            LD A, 0x00
D26C: FF               RST 0x38
D26D: FF               RST 0x38
D26E: 00               NOP
D26F: 3F               CCF
D270: C0               RET NZ
D271: 1F               RRA
D272: 00               NOP
D273: FF               RST 0x38
D274: E0               RET PO
D275: 00               NOP
D276: C0               RET NZ
D277: 00               NOP
D278: 00               NOP
D279: 03               INC BC
D27A: 00               NOP
D27B: 60               LD H, B
D27C: 0C               INC C
D27D: 9C               SBC A, H
D27E: 01 F8 38         LD BC, 0x38F8
D281: 07               RLCA
D282: FF               RST 0x38
D283: 00               NOP
D284: FE 00            CP 0x00
D286: 3E 03            LD A, 0x03
D288: 03               INC BC
D289: 80               ADD A, B
D28A: 00               NOP
D28B: 00               NOP
D28C: FF               RST 0x38
D28D: 00               NOP
D28E: FF               RST 0x38
D28F: 0F               RRCA
D290: E0               RET PO
D291: 00               NOP
D292: C0               RET NZ
D293: 3F               CCF
D294: 1E 00            LD E, 0x00
D296: 1F               RRA
D297: F8               RET M
D298: 3F               CCF
D299: E0               RET PO
D29A: 06 07            LD B, 0x07
D29C: 01 78 C3         LD BC, 0xC378
D29F: F8               RET M
D2A0: 00               NOP
D2A1: 00               NOP
D2A2: 07               RLCA
D2A3: FC 00 00         CALL M, 0x0000
D2A6: E0               RET PO
D2A7: 0F               RRCA
D2A8: 1F               RRA
D2A9: 01 F0 03         LD BC, 0x03F0
D2AC: FF               RST 0x38
D2AD: FF               RST 0x38
D2AE: FF               RST 0x38
D2AF: 03               INC BC
D2B0: F8               RET M
D2B1: 00               NOP
D2B2: 70               LD (HL), B
D2B3: 03               INC BC
D2B4: FE F8            CP 0xF8
D2B6: 00               NOP
D2B7: 00               NOP
D2B8: 00               NOP
D2B9: 03               INC BC
D2BA: 1F               RRA
D2BB: 81               ADD A, C
D2BC: 82               ADD A, D
D2BD: F0               RET P
D2BE: 01 7E 01         LD BC, 0x017E
D2C1: F8               RET M
D2C2: 00               NOP
D2C3: 00               NOP
D2C4: 03               INC BC
D2C5: F8               RET M
D2C6: 01 FF F0         LD BC, 0xF0FF
D2C9: 00               NOP
D2CA: C0               RET NZ
D2CB: 1F               RRA
D2CC: FF               RST 0x38
D2CD: FF               RST 0x38
D2CE: FF               RST 0x38
D2CF: F8               RET M
D2D0: 00               NOP
D2D1: 00               NOP
D2D2: 01 FF F0         LD BC, 0xF0FF
D2D5: 00               NOP
D2D6: 00               NOP
D2D7: 03               INC BC
D2D8: FF               RST 0x38
D2D9: FF               RST 0x38
D2DA: 80               ADD A, B
D2DB: 00               NOP
D2DC: 03               INC BC
D2DD: F8               RET M
D2DE: 01 78 30         LD BC, 0x3078
D2E1: 30 FC            JR NC, 0xD2DF
D2E3: 00               NOP
D2E4: 00               NOP
D2E5: 00               NOP
D2E6: FF               RST 0x38
D2E7: 0F               RRCA
D2E8: 00               NOP
D2E9: 78               LD A, B
D2EA: 01 FF F0         LD BC, 0xF0FF
D2ED: FF               RST 0x38
D2EE: 00               NOP
D2EF: C0               RET NZ
D2F0: 00               NOP
D2F1: 00               NOP
D2F2: 0F               RRCA
D2F3: F8               RET M
D2F4: 00               NOP
D2F5: F0               RET P
D2F6: 01 FF FF         LD BC, 0xFFFF
D2F9: FF               RST 0x38
D2FA: FE 01            CP 0x01
D2FC: 81               ADD A, C
D2FD: 78               LD A, B
D2FE: 02               LD (BC), A
D2FF: E1               POP HL
D300: 07               RLCA
D301: FC 00 7F         CALL M, 0x7F00
D304: FF               RST 0x38
D305: 80               ADD A, B
D306: 01 FE F0         LD BC, 0xF0FE
D309: 00               NOP
D30A: 00               NOP
D30B: 7F               LD A, A
D30C: FE 00            CP 0x00
D30E: 00               NOP
D30F: 80               ADD A, B
D310: 01 E0 0F         LD BC, 0x0FE0
D313: C1               POP BC
D314: 07               RLCA
D315: C0               RET NZ
D316: 1F               RRA
D317: FF               RST 0x38
D318: FF               RST 0x38
D319: FF               RST 0x38
D31A: FF               RST 0x38
D31B: 01 C3 F1         LD BC, 0xF1C3
D31E: 88               ADC A, B
D31F: 8C               ADC A, H
D320: 30 80            JR NC, 0xD2A2
D322: 00               NOP
D323: 00               NOP
D324: 00               NOP
D325: 00               NOP
D326: 80               ADD A, B
D327: 3F               CCF
D328: 1C               INC E
D329: 00               NOP
D32A: C0               RET NZ
D32B: 3F               CCF
D32C: FF               RST 0x38
D32D: 00               NOP
D32E: FF               RST 0x38
D32F: C0               RET NZ
D330: 03               INC BC
D331: E0               RET PO
D332: 3F               CCF
D333: 3C               INC A
D334: 00               NOP
D335: 80               ADD A, B
D336: 1F               RRA
D337: FF               RST 0x38
D338: FF               RST 0x38
D339: FF               RST 0x38
D33A: F8               RET M
D33B: 00               NOP
D33C: 18 8C            JR 0xD2CA
D33E: B8               CP B
D33F: C2 F0 00         JP NZ, 0x00F0
D342: 00               NOP
D343: 00               NOP
D344: 00               NOP
D345: 00               NOP
D346: E0               RET PO
D347: 1F               RRA
D348: E1               POP HL
D349: 01 C0 1F         LD BC, 0x1FC0
D34C: FE FF            CP 0xFF
D34E: 00               NOP
D34F: 80               ADD A, B
D350: 00               NOP
D351: 00               NOP
D352: 1F               RRA
D353: C3 03 C0         JP 0xC003
D356: 0F               RRCA
D357: FF               RST 0x38
D358: FF               RST 0x38
D359: FF               RST 0x38
D35A: 01 E1 38         LD BC, 0x38E1
D35D: 04               INC B
D35E: C6 CF            ADD A, 0xCF
D360: 01 C0 00         LD BC, 0x00C0
D363: 00               NOP
D364: 00               NOP
D365: 01 E0 0F         LD BC, 0x0FE0
D368: E1               POP HL
D369: 03               INC BC
D36A: C0               RET NZ
D36B: 1F               RRA
D36C: FF               RST 0x38
D36D: 00               NOP
D36E: FF               RST 0x38
D36F: E0               RET PO
D370: 01 F0 0F         LD BC, 0x0FF0
D373: F0               RET P
D374: 00               NOP
D375: 00               NOP
D376: 00               NOP
D377: 1F               RRA
D378: FE 00            CP 0x00
D37A: 00               NOP
D37B: 18 C6            JR 0xD343
D37D: CE 00            ADC A, 0x00
D37F: 3E 07            LD A, 0x07
D381: 80               ADD A, B
D382: 00               NOP
D383: DF               RST 0x18
D384: 00               NOP
D385: 07               RLCA
D386: C0               RET NZ
D387: 3F               CCF
D388: 3C               INC A
D389: 00               NOP
D38A: 00               NOP
D38B: 3F               CCF
D38C: FC FF 00         CALL M, 0x00FF
D38F: E0               RET PO
D390: 00               NOP
D391: 00               NOP
D392: 03               INC BC
D393: FE E0            CP 0xE0
D395: 07               RLCA
D396: E0               RET PO
D397: 00               NOP
D398: 00               NOP
D399: 1E 01            LD E, 0x01
D39B: 81               ADD A, C
D39C: 00               NOP
D39D: BC               CP H
D39E: 30 1F            JR NC, 0xD3BF
D3A0: 00               NOP
D3A1: 00               NOP
D3A2: 00               NOP
D3A3: 00               NOP
D3A4: 00               NOP
D3A5: 00               NOP
D3A6: 01 FE F0         LD BC, 0xF0FE
D3A9: 1F               RRA
D3AA: 00               NOP
D3AB: FF               RST 0x38
D3AC: FC 00 00         CALL M, 0x0000
D3AF: F8               RET M
D3B0: 00               NOP
D3B1: 0F               RRCA
D3B2: 00               NOP
D3B3: 3F               CCF
D3B4: E0               RET PO
D3B5: 00               NOP
D3B6: 00               NOP
D3B7: 00               NOP
D3B8: FE 00            CP 0x00
D3BA: C3 E0 60         JP 0x60E0
D3BD: 7C               LD A, H
D3BE: 00               NOP
D3BF: CF               RST 0x08
D3C0: E0               RET PO
D3C1: 07               RLCA
D3C2: FF               RST 0x38
D3C3: FF               RST 0x38
D3C4: FC 00 7F         CALL M, 0x7F00
D3C7: E1               POP HL
D3C8: 00               NOP
D3C9: 00               NOP
D3CA: 07               RLCA
D3CB: FF               RST 0x38
D3CC: F0               RET P
D3CD: 00               NOP
D3CE: 00               NOP
D3CF: 00               NOP
D3D0: 00               NOP
D3D1: 00               NOP
D3D2: 1F               RRA
D3D3: F1               POP AF
D3D4: 00               NOP
D3D5: 00               NOP
D3D6: 00               NOP
D3D7: FF               RST 0x38
D3D8: FF               RST 0x38
D3D9: FF               RST 0x38
D3DA: FF               RST 0x38
D3DB: 00               NOP
D3DC: 00               NOP
D3DD: 3E 00            LD A, 0x00
D3DF: 9E               SBC A, (HL)
D3E0: 0C               INC C
D3E1: 0E FF            LD C, 0xFF
D3E3: F8               RET M
D3E4: 00               NOP
D3E5: FF               RST 0x38
D3E6: FE F0            CP 0xF0
D3E8: 07               RLCA
D3E9: 80               ADD A, B
D3EA: 1F               RRA
D3EB: F0               RET P
D3EC: 07               RLCA
D3ED: 00               NOP
D3EE: FF               RST 0x38
D3EF: 00               NOP
D3F0: 00               NOP
D3F1: 00               NOP
D3F2: FF               RST 0x38
D3F3: 8F               ADC A, A
D3F4: 0E 00            LD C, 0x00
D3F6: 7F               LD A, A
D3F7: F8               RET M
D3F8: 00               NOP
D3F9: 00               NOP
D3FA: 3F               CCF
D3FB: E0               RET PO
D3FC: 30 9E            JR NC, 0xD39C
D3FE: 01 78 01         LD BC, 0x0178
D401: 3F               CCF
D402: 80               ADD A, B
D403: 00               NOP
D404: 00               NOP
D405: 00               NOP
D406: 1F               RRA
D407: F0               RET P
D408: 00               NOP
D409: 00               NOP
D40A: 0F               RRCA
D40B: FE 07            CP 0x07
D40D: FF               RST 0x38
D40E: FF               RST 0x38
D40F: 00               NOP
D410: 3C               INC A
D411: 01 FC 1F         LD BC, 0x1FFC
D414: 3C               INC A
D415: 03               INC BC
D416: FF               RST 0x38
D417: 80               ADD A, B
D418: 1F               RRA
D419: E0               RET PO
D41A: 3F               CCF
D41B: F0               RET P
D41C: 70               LD (HL), B
D41D: 38 C4            JR C, 0xD3E3
D41F: C6 18            ADD A, 0x18
D421: F0               RET P
D422: 00               NOP
D423: 00               NOP
D424: 00               NOP
D425: 00               NOP
D426: 03               INC BC
D427: FE C0            CP 0xC0
D429: 00               NOP
D42A: 03               INC BC
D42B: FF               RST 0x38
D42C: 03               INC BC
D42D: FF               RST 0x38
D42E: 00               NOP
D42F: 00               NOP
D430: 7C               LD A, H
D431: 01 FE C0         LD BC, 0xC0FE
D434: 00               NOP
D435: 03               INC BC
D436: FF               RST 0x38
D437: 80               ADD A, B
D438: 00               NOP
D439: 00               NOP
D43A: FF               RST 0x38
D43B: 00               NOP
D43C: 06 C6            LD B, 0xC6
D43E: DC 21 7E         CALL C, 0x7E21
D441: 00               NOP
D442: 00               NOP
D443: 00               NOP
D444: 00               NOP
D445: 00               NOP
D446: 01 FF 1F         LD BC, 0x1FFF
D449: 1C               INC E
D44A: 01 FF 00         LD BC, 0x00FF
D44D: 00               NOP
D44E: FF               RST 0x38
D44F: 00               NOP
D450: 00               NOP
D451: 00               NOP
D452: FE 1F            CP 0x1F
D454: 3C               INC A
D455: 01 FF FF         LD BC, 0xFFFF
D458: 87               ADD A, A
D459: FF               RST 0x38
D45A: F0               RET P
D45B: 38 9C            JR C, 0xD3F9
D45D: 03               INC BC
D45E: E3               EX (SP), HL
D45F: F3               DI
D460: E0               RET PO
D461: 3C               INC A
D462: 00               NOP
D463: 00               NOP
D464: 00               NOP
D465: 7C               LD A, H
D466: 00               NOP
D467: FE 1F            CP 0x1F
D469: 3C               INC A
D46A: 03               INC BC
D46B: FF               RST 0x38
D46C: 81               ADD A, C
D46D: FF               RST 0x38
D46E: 00               NOP
D46F: 00               NOP
D470: 3F               CCF
D471: 00               NOP
D472: FF               RST 0x38
D473: 0F               RRCA
D474: 00               NOP
D475: 00               NOP
D476: 1F               RRA
D477: FF               RST 0x38
D478: FF               RST 0x38
D479: F8               RET M
D47A: 00               NOP
D47B: 06 E1            LD B, 0xE1
D47D: 73               LD (HL), E
D47E: 00               NOP
D47F: CF               RST 0x08
D480: C0               RET NZ
D481: 7E               LD A, (HL)
D482: 00               NOP
D483: FF               RST 0x38
D484: 07               RLCA
D485: F0               RET P
D486: 03               INC BC
D487: FC C0 00         CALL M, 0x00C0
D48A: 00               NOP
D48B: FE 01            CP 0x01
D48D: 00               NOP
D48E: FF               RST 0x38
D48F: 00               NOP
D490: 00               NOP
D491: 00               NOP
D492: 3F               CCF
D493: E1               POP HL
D494: 00               NOP
D495: 78               LD A, B
D496: 00               NOP
D497: 00               NOP
D498: 00               NOP
D499: 01 E0 70         LD BC, 0x70E0
D49C: 00               NOP
D49D: CF               RST 0x08
D49E: 0C               INC C
D49F: E3               EX (SP), HL
D4A0: 00               NOP
D4A1: 00               NOP
D4A2: 00               NOP
D4A3: 00               NOP
D4A4: 00               NOP
D4A5: 00               NOP
D4A6: 3F               CCF
D4A7: C1               POP BC
D4A8: 03               INC BC
D4A9: E0               RET PO
D4AA: 1F               RRA
D4AB: FC 0F FF         CALL M, 0xFF0F
D4AE: FF               RST 0x38
D4AF: 00               NOP
D4B0: 03               INC BC
D4B1: F0               RET P
D4B2: 03               INC BC
D4B3: FE 0F            CP 0x0F
D4B5: 00               NOP
D4B6: 00               NOP
D4B7: 00               NOP
D4B8: 7F               LD A, A
D4B9: 00               NOP
D4BA: F8               RET M
D4BB: FC 18 CF         CALL M, 0xCF18
D4BE: 00               NOP
D4BF: F8               RET M
D4C0: FF               RST 0x38
D4C1: 80               ADD A, B
D4C2: 00               NOP
D4C3: 00               NOP
D4C4: 00               NOP
D4C5: 1F               RRA
D4C6: FC 3F 00         CALL M, 0x003F
D4C9: 00               NOP
D4CA: FF               RST 0x38
D4CB: E0               RET PO
D4CC: 3F               CCF
D4CD: FF               RST 0x38
D4CE: FF               RST 0x38
D4CF: 00               NOP
D4D0: 03               INC BC
D4D1: FF               RST 0x38
D4D2: C0               RET NZ
D4D3: 1F               RRA
D4D4: 00               NOP
D4D5: 80               ADD A, B
D4D6: 3F               CCF
D4D7: FF               RST 0x38
D4D8: FF               RST 0x38
D4D9: C0               RET NZ
D4DA: 81               ADD A, C
D4DB: E0               RET PO
D4DC: F9               LD SP, HL
D4DD: 00               NOP
D4DE: 1F               RRA
D4DF: 1F               RRA
D4E0: 00               NOP
D4E1: 00               NOP
D4E2: 3F               CCF
D4E3: FF               RST 0x38
D4E4: 00               NOP
D4E5: 00               NOP
D4E6: 00               NOP
D4E7: FC 1F 00         CALL M, 0x001F
D4EA: 00               NOP
D4EB: 00               NOP
D4EC: 00               NOP
D4ED: FF               RST 0x38
D4EE: 00               NOP
D4EF: 00               NOP
D4F0: 80               ADD A, B
D4F1: 3F               CCF
D4F2: F8               RET M
D4F3: 00               NOP
D4F4: 00               NOP
D4F5: 00               NOP
D4F6: F0               RET P
D4F7: FF               RST 0x38
D4F8: 00               NOP
D4F9: 00               NOP
D4FA: 00               NOP
D4FB: 00               NOP
D4FC: F1               POP AF
D4FD: 0E 0F            LD C, 0x0F
D4FF: E3               EX (SP), HL
D500: 00               NOP
D501: 00               NOP
D502: 00               NOP
D503: 00               NOP
D504: 00               NOP
D505: 00               NOP
D506: FF               RST 0x38
D507: 07               RLCA
D508: FE 00            CP 0x00
D50A: 7F               LD A, A
D50B: 00               NOP
D50C: 00               NOP
D50D: 00               NOP
D50E: 00               NOP
D50F: 00               NOP
D510: F8               RET M
D511: 01 FF E0         LD BC, 0xE0FF
D514: 00               NOP
D515: 00               NOP
D516: 00               NOP
D517: 00               NOP
D518: 00               NOP
D519: 00               NOP
D51A: 00               NOP
D51B: 0F               RRCA
D51C: E1               POP HL
D51D: 00               NOP
D51E: 00               NOP
D51F: FF               RST 0x38
D520: 03               INC BC
D521: FF               RST 0x38
D522: FF               RST 0x38
D523: FF               RST 0x38
D524: FF               RST 0x38
D525: F8               RET M
D526: 07               RLCA
D527: FF               RST 0x38
D528: 00               NOP
D529: 00               NOP
D52A: 00               NOP
D52B: FF               RST 0x38
D52C: 00               NOP
D52D: 00               NOP
D52E: FF               RST 0x38
D52F: FF               RST 0x38
D530: FF               RST 0x38
D531: 1F               RRA
D532: 1F               RRA
D533: FF               RST 0x38
D534: E0               RET PO
D535: 00               NOP
D536: 0F               RRCA
D537: 00               NOP
D538: 00               NOP
D539: 00               NOP
D53A: 00               NOP
D53B: FF               RST 0x38
D53C: E1               POP HL
D53D: 00               NOP
D53E: 00               NOP
D53F: 00               NOP
D540: FF               RST 0x38
D541: C0               RET NZ
D542: 00               NOP
D543: 00               NOP
D544: 00               NOP
D545: 7F               LD A, A
D546: FF               RST 0x38
D547: 00               NOP
D548: 00               NOP
D549: 00               NOP
D54A: 00               NOP
D54B: FF               RST 0x38
D54C: FF               RST 0x38
D54D: FF               RST 0x38
D54E: 00               NOP
D54F: 00               NOP
D550: 00               NOP
D551: 00               NOP
D552: 00               NOP
D553: 0F               RRCA
D554: FF               RST 0x38
D555: F8               RET M
D556: 00               NOP
D557: 00               NOP
D558: 00               NOP
D559: 00               NOP
D55A: 0F               RRCA
D55B: FF               RST 0x38
D55C: 80               ADD A, B
D55D: 00               NOP
D55E: 00               NOP
D55F: 00               NOP
D560: 00               NOP
D561: FF               RST 0x38
D562: FF               RST 0x38
D563: FF               RST 0x38
D564: FF               RST 0x38
D565: 00               NOP
D566: 00               NOP
D567: 00               NOP
D568: 00               NOP
D569: 00               NOP
D56A: 00               NOP
D56B: 00               NOP
D56C: 00               NOP
D56D: 00               NOP
D56E: FF               RST 0x38
D56F: FF               RST 0x38
D570: FF               RST 0x38
D571: FF               RST 0x38
D572: 00               NOP
D573: 00               NOP
D574: 1F               RRA
D575: FF               RST 0x38
D576: FF               RST 0x38
D577: FF               RST 0x38
D578: FF               RST 0x38
D579: FF               RST 0x38
D57A: FF               RST 0x38
D57B: FF               RST 0x38
D57C: 01 00 01         LD BC, 0x0100
D57F: FE 00            CP 0x00
D581: 00               NOP
D582: 00               NOP
D583: 00               NOP
D584: 00               NOP
D585: 00               NOP
D586: 1F               RRA
D587: F8               RET M
D588: 00               NOP
D589: 00               NOP
D58A: FF               RST 0x38
D58B: FF               RST 0x38
D58C: FF               RST 0x38
D58D: FF               RST 0x38
D58E: 00               NOP
D58F: 00               NOP
D590: 00               NOP
D591: 00               NOP
D592: 00               NOP
D593: 00               NOP
D594: 00               NOP
D595: 00               NOP
D596: 3F               CCF
D597: FF               RST 0x38
D598: FF               RST 0x38
D599: FF               RST 0x38
D59A: FF               RST 0x38
D59B: 80               ADD A, B
D59C: 01 00 00         LD BC, 0x0000
D59F: 00               NOP
D5A0: 00               NOP
D5A1: 00               NOP
D5A2: 00               NOP
D5A3: 00               NOP
D5A4: 00               NOP
D5A5: 00               NOP
D5A6: 00               NOP
D5A7: 00               NOP
D5A8: 00               NOP
D5A9: 00               NOP
D5AA: 00               NOP
D5AB: 00               NOP
D5AC: 00               NOP
D5AD: 00               NOP
D5AE: 00               NOP
D5AF: 00               NOP
D5B0: 00               NOP
D5B1: 00               NOP
D5B2: 00               NOP
D5B3: 00               NOP
D5B4: 00               NOP
D5B5: C0               RET NZ
D5B6: 00               NOP
D5B7: 00               NOP
D5B8: 00               NOP
D5B9: 00               NOP
D5BA: 00               NOP
D5BB: 00               NOP
D5BC: 03               INC BC
D5BD: 00               NOP
D5BE: FF               RST 0x38
D5BF: FF               RST 0x38
D5C0: 00               NOP
D5C1: 00               NOP
D5C2: 00               NOP
D5C3: 00               NOP
D5C4: 00               NOP
D5C5: 00               NOP
D5C6: FF               RST 0x38
D5C7: 00               NOP
D5C8: 00               NOP
D5C9: 00               NOP
D5CA: 00               NOP
D5CB: 00               NOP
D5CC: 00               NOP
D5CD: 00               NOP
D5CE: 00               NOP
D5CF: FC FF F8         CALL M, 0xF8FF
D5D2: 03               INC BC
D5D3: F0               RET P
D5D4: 07               RLCA
D5D5: 1F               RRA
D5D6: FF               RST 0x38
D5D7: FF               RST 0x38
D5D8: FF               RST 0x38
D5D9: FE F0            CP 0xF0
D5DB: 38 3E            JR C, 0xD61B
D5DD: 80               ADD A, B
D5DE: 03               INC BC
D5DF: E3               EX (SP), HL
D5E0: 00               NOP
D5E1: 00               NOP
D5E2: 00               NOP
D5E3: 00               NOP
D5E4: 00               NOP
D5E5: 00               NOP
D5E6: 00               NOP
D5E7: 03               INC BC
D5E8: FC 00 00         CALL M, 0x0000
D5EB: 00               NOP
D5EC: 1F               RRA
D5ED: 00               NOP
D5EE: FF               RST 0x38
D5EF: FF               RST 0x38
D5F0: 1F               RRA
D5F1: FF               RST 0x38
D5F2: 00               NOP
D5F3: 00               NOP
D5F4: 00               NOP
D5F5: 07               RLCA
D5F6: 00               NOP
D5F7: 80               ADD A, B
D5F8: E0               RET PO
D5F9: FC 00 00         CALL M, 0x0000
D5FC: 7E               LD A, (HL)
D5FD: C1               POP BC
D5FE: C0               RET NZ
D5FF: FE E0            CP 0xE0
D601: 00               NOP
D602: 00               NOP
D603: 00               NOP
D604: 00               NOP
D605: 00               NOP
D606: C1               POP BC
D607: FF               RST 0x38
D608: C0               RET NZ
D609: 1F               RRA
D60A: 80               ADD A, B
D60B: 03               INC BC
D60C: FF               RST 0x38
D60D: FF               RST 0x38
D60E: FF               RST 0x38
D60F: FF               RST 0x38
D610: 01 FF F8         LD BC, 0xF8FF
D613: 00               NOP
D614: 00               NOP
D615: 00               NOP
D616: 00               NOP
D617: 00               NOP
D618: 00               NOP
D619: 00               NOP
D61A: 00               NOP
D61B: 00               NOP
D61C: FE C0            CP 0xC0
D61E: 00               NOP
D61F: 07               RLCA
D620: FE 00            CP 0x00
D622: 7F               LD A, A
D623: FF               RST 0x38
D624: 80               ADD A, B
D625: 07               RLCA
D626: FF               RST 0x38
D627: 80               ADD A, B
D628: 00               NOP
D629: 00               NOP
D62A: 00               NOP
D62B: C0               RET NZ
D62C: FF               RST 0x38
D62D: FF               RST 0x38
D62E: 00               NOP
D62F: 00               NOP
D630: 00               NOP
D631: C0               RET NZ
D632: FF               RST 0x38
D633: F8               RET M
D634: 00               NOP
D635: 0F               RRCA
D636: FF               RST 0x38
D637: 00               NOP
D638: 00               NOP
D639: 00               NOP
D63A: C0               RET NZ
D63B: 07               RLCA
D63C: FE E0            CP 0xE0
D63E: 00               NOP
D63F: 00               NOP
D640: 07               RLCA
D641: FF               RST 0x38
D642: FF               RST 0x38
D643: FF               RST 0x38
D644: FF               RST 0x38
D645: FE 00            CP 0x00
D647: 00               NOP
D648: 00               NOP
D649: 00               NOP
D64A: 01 00 00         LD BC, 0x0000
D64D: 00               NOP
D64E: FF               RST 0x38
D64F: FF               RST 0x38
D650: FF               RST 0x38
D651: FF               RST 0x38
D652: 3F               CCF
D653: FF               RST 0x38
D654: F8               RET M
D655: 00               NOP
D656: 00               NOP
D657: 00               NOP
D658: 00               NOP
D659: 00               NOP
D65A: 00               NOP
D65B: 1F               RRA
D65C: FE F8            CP 0xF8
D65E: 00               NOP
D65F: 00               NOP
D660: 00               NOP
D661: 00               NOP
D662: 00               NOP
D663: 00               NOP
D664: 00               NOP
D665: 00               NOP
D666: 00               NOP
D667: 00               NOP
D668: 00               NOP
D669: 01 FF FF         LD BC, 0xFFFF
D66C: FF               RST 0x38
D66D: FF               RST 0x38
D66E: 00               NOP
D66F: 00               NOP
D670: 00               NOP
D671: 00               NOP
D672: FE FF            CP 0xFF
D674: FF               RST 0x38
D675: FF               RST 0x38
D676: E0               RET PO
D677: 00               NOP
D678: 00               NOP
D679: 00               NOP
D67A: 1F               RRA
D67B: FF               RST 0x38
D67C: FF               RST 0x38
D67D: FE 00            CP 0x00
D67F: 00               NOP
D680: 7F               LD A, A
D681: FE 00            CP 0x00
D683: 00               NOP
D684: 7F               LD A, A
D685: FF               RST 0x38
D686: 00               NOP
D687: 00               NOP
D688: 00               NOP
D689: 3F               CCF
D68A: 00               NOP
D68B: 00               NOP
D68C: 00               NOP
D68D: 00               NOP
D68E: FF               RST 0x38
D68F: FF               RST 0x38
D690: FF               RST 0x38
D691: FF               RST 0x38
D692: FF               RST 0x38
D693: FF               RST 0x38
D694: 3F               CCF
D695: FF               RST 0x38
D696: FF               RST 0x38
D697: FF               RST 0x38
D698: FF               RST 0x38
D699: FF               RST 0x38
D69A: FF               RST 0x38
D69B: FF               RST 0x38
D69C: FC FF E0         CALL M, 0xE0FF
D69F: 00               NOP
D6A0: 00               NOP
D6A1: 00               NOP
D6A2: 00               NOP
D6A3: 00               NOP
D6A4: 00               NOP
D6A5: 00               NOP
D6A6: 00               NOP
D6A7: 01 FF FF         LD BC, 0xFFFF
D6AA: FF               RST 0x38
D6AB: FF               RST 0x38
D6AC: FF               RST 0x38
D6AD: FF               RST 0x38
D6AE: FF               RST 0x38
D6AF: FF               RST 0x38
D6B0: FF               RST 0x38
D6B1: FF               RST 0x38
D6B2: FF               RST 0x38
D6B3: FF               RST 0x38
D6B4: FF               RST 0x38
D6B5: 01 FF FF         LD BC, 0xFFFF
D6B8: FF               RST 0x38
D6B9: FF               RST 0x38
D6BA: FF               RST 0x38
D6BB: FF               RST 0x38
D6BC: E0               RET PO
D6BD: FF               RST 0x38
D6BE: 00               NOP
D6BF: FF               RST 0x38
D6C0: 00               NOP
D6C1: 00               NOP
D6C2: 00               NOP
D6C3: 00               NOP
D6C4: 00               NOP
D6C5: 00               NOP
D6C6: C0               RET NZ
D6C7: FF               RST 0x38
D6C8: FF               RST 0x38
D6C9: FF               RST 0x38
D6CA: FF               RST 0x38
D6CB: FF               RST 0x38
D6CC: FF               RST 0x38
D6CD: FF               RST 0x38
D6CE: FF               RST 0x38
D6CF: 00               NOP
D6D0: FF               RST 0x38
D6D1: 00               NOP
D6D2: 3F               CCF
D6D3: 00               NOP
D6D4: 7E               LD A, (HL)
D6D5: FF               RST 0x38
D6D6: E0               RET PO
D6D7: 00               NOP
D6D8: 00               NOP
D6D9: 7F               LD A, A
D6DA: 1E 07            LD E, 0x07
D6DC: 07               RLCA
D6DD: 30 60            JR NC, 0xD73F
D6DF: 7C               LD A, H
D6E0: C0               RET NZ
D6E1: 00               NOP
D6E2: FF               RST 0x38
D6E3: FF               RST 0x38
D6E4: 00               NOP
D6E5: 00               NOP
D6E6: 1F               RRA
D6E7: 7F               LD A, A
D6E8: 80               ADD A, B
D6E9: 00               NOP
D6EA: 00               NOP
D6EB: 3F               CCF
D6EC: 80               ADD A, B
D6ED: FF               RST 0x38
D6EE: 00               NOP
D6EF: 00               NOP
D6F0: FF               RST 0x38
D6F1: C0               RET NZ
D6F2: 01 00 01         LD BC, 0x0100
D6F5: FF               RST 0x38
D6F6: FF               RST 0x38
D6F7: 00               NOP
D6F8: FF               RST 0x38
D6F9: 0F               RRCA
D6FA: C0               RET NZ
D6FB: 00               NOP
D6FC: 0F               RRCA
D6FD: 78               LD A, B
D6FE: 3C               INC A
D6FF: 0F               RRCA
D700: 07               RLCA
D701: C0               RET NZ
D702: 00               NOP
D703: 00               NOP
D704: 00               NOP
D705: 3F               CCF
D706: FF               RST 0x38
D707: F0               RET P
D708: 07               RLCA
D709: E0               RET PO
D70A: 03               INC BC
D70B: FE 00            CP 0x00
D70D: 00               NOP
D70E: 00               NOP
D70F: 00               NOP
D710: FF               RST 0x38
D711: FE 00            CP 0x00
D713: 07               RLCA
D714: 00               NOP
D715: 00               NOP
D716: 07               RLCA
D717: FF               RST 0x38
D718: FF               RST 0x38
D719: 00               NOP
D71A: 00               NOP
D71B: E0               RET PO
D71C: 1F               RRA
D71D: 3C               INC A
D71E: 00               NOP
D71F: 80               ADD A, B
D720: 1F               RRA
D721: FF               RST 0x38
D722: E0               RET PO
D723: 00               NOP
D724: FF               RST 0x38
D725: FF               RST 0x38
D726: C0               RET NZ
D727: 01 00 00         LD BC, 0x0000
D72A: 7F               LD A, A
D72B: 1F               RRA
D72C: 00               NOP
D72D: 00               NOP
D72E: FF               RST 0x38
D72F: FF               RST 0x38
D730: FF               RST 0x38
D731: 00               NOP
D732: FC 00 07         CALL M, 0x0700
D735: FE 00            CP 0x00
D737: 00               NOP
D738: 00               NOP
D739: 00               NOP
D73A: FF               RST 0x38
D73B: 00               NOP
D73C: 3F               CCF
D73D: 0F               RRCA
D73E: 00               NOP
D73F: 00               NOP
D740: 00               NOP
D741: 00               NOP
D742: 3F               CCF
D743: FF               RST 0x38
D744: 00               NOP
D745: 00               NOP
D746: 03               INC BC
D747: 00               NOP
D748: 00               NOP
D749: 07               RLCA
D74A: F0               RET P
D74B: FF               RST 0x38
D74C: FF               RST 0x38
D74D: FF               RST 0x38
D74E: 00               NOP
D74F: 00               NOP
D750: 00               NOP
D751: 00               NOP
D752: FF               RST 0x38
D753: F0               RET P
D754: 00               NOP
D755: 00               NOP
D756: 3F               CCF
D757: FF               RST 0x38
D758: FF               RST 0x38
D759: FF               RST 0x38
D75A: 00               NOP
D75B: 00               NOP
D75C: 7F               LD A, A
D75D: 07               RLCA
D75E: F0               RET P
D75F: 00               NOP
D760: 00               NOP
D761: F8               RET M
D762: 00               NOP
D763: 00               NOP
D764: 07               RLCA
D765: 00               NOP
D766: 00               NOP
D767: 00               NOP
D768: 0F               RRCA
D769: FF               RST 0x38
D76A: 00               NOP
D76B: 00               NOP
D76C: 00               NOP
D76D: 00               NOP
D76E: FF               RST 0x38
D76F: FF               RST 0x38
D770: FF               RST 0x38
D771: FF               RST 0x38
D772: 00               NOP
D773: FF               RST 0x38
D774: FF               RST 0x38
D775: 00               NOP
D776: 00               NOP
D777: 00               NOP
D778: 00               NOP
D779: 00               NOP
D77A: 00               NOP
D77B: 03               INC BC
D77C: FF               RST 0x38
D77D: 00               NOP
D77E: FE 00            CP 0x00
D780: 00               NOP
D781: 00               NOP
D782: 00               NOP
D783: 00               NOP
D784: 00               NOP
D785: 00               NOP
D786: 00               NOP
D787: 0F               RRCA
D788: FE 00            CP 0x00
D78A: FF               RST 0x38
D78B: FF               RST 0x38
D78C: FF               RST 0x38
D78D: FF               RST 0x38
D78E: 00               NOP
D78F: 00               NOP
D790: 00               NOP
D791: 00               NOP
D792: 00               NOP
D793: 00               NOP
D794: FF               RST 0x38
D795: FF               RST 0x38
D796: F0               RET P
D797: 00               NOP
D798: 00               NOP
D799: 00               NOP
D79A: 00               NOP
D79B: 7F               LD A, A
D79C: FF               RST 0x38
D79D: 00               NOP
D79E: 3F               CCF
D79F: FF               RST 0x38
D7A0: 80               ADD A, B
D7A1: 00               NOP
D7A2: 00               NOP
D7A3: 00               NOP
D7A4: 00               NOP
D7A5: 0F               RRCA
D7A6: FF               RST 0x38
D7A7: FE 00            CP 0x00
D7A9: 00               NOP
D7AA: 00               NOP
D7AB: 00               NOP
D7AC: 00               NOP
D7AD: 00               NOP
D7AE: 00               NOP
D7AF: 00               NOP
D7B0: 00               NOP
D7B1: 00               NOP
D7B2: 00               NOP
D7B3: 00               NOP
D7B4: 00               NOP
D7B5: FF               RST 0x38
D7B6: FF               RST 0x38
D7B7: FF               RST 0x38
D7B8: FF               RST 0x38
D7B9: FF               RST 0x38
D7BA: FF               RST 0x38
D7BB: FF               RST 0x38
D7BC: FF               RST 0x38
D7BD: 00               NOP
D7BE: FC 00 FF         CALL M, 0xFF00
D7C1: FF               RST 0x38
D7C2: FF               RST 0x38
D7C3: FF               RST 0x38
D7C4: FF               RST 0x38
D7C5: FF               RST 0x38
D7C6: 1F               RRA
D7C7: 00               NOP
D7C8: 00               NOP
D7C9: 00               NOP
D7CA: 00               NOP
D7CB: 10 43            DJNZ 0xD810
D7CD: 5D               LD E, L
D7CE: FF               RST 0x38
D7CF: 00               NOP
D7D0: 00               NOP
D7D1: 07               RLCA
D7D2: E0               RET PO
D7D3: 0F               RRCA
D7D4: C0               RET NZ
D7D5: F8               RET M
D7D6: 00               NOP
D7D7: 00               NOP
D7D8: 00               NOP
D7D9: 03               INC BC
D7DA: 03               INC BC
D7DB: C1               POP BC
D7DC: C1               POP BC
D7DD: 0C               INC C
D7DE: 0C               INC C
D7DF: 0F               RRCA
D7E0: 1F               RRA
D7E1: 00               NOP
D7E2: 00               NOP
D7E3: 00               NOP
D7E4: 00               NOP
D7E5: 0F               RRCA
D7E6: E0               RET PO
D7E7: F0               RET P
D7E8: 07               RLCA
D7E9: 00               NOP
D7EA: 0F               RRCA
D7EB: 80               ADD A, B
D7EC: 00               NOP
D7ED: FF               RST 0x38
D7EE: 00               NOP
D7EF: 00               NOP
D7F0: C0               RET NZ
D7F1: 00               NOP
D7F2: 3E 00            LD A, 0x00
D7F4: 3F               CCF
D7F5: 80               ADD A, B
D7F6: FF               RST 0x38
D7F7: 00               NOP
D7F8: FF               RST 0x38
D7F9: 00               NOP
D7FA: 7C               LD A, H
D7FB: 00               NOP
D7FC: 01 0F 03         LD BC, 0x030F
D7FF: 80               ADD A, B
D800: 00               NOP
D801: 0F               RRCA
D802: FF               RST 0x38
D803: FF               RST 0x38
D804: FE 00            CP 0x00
D806: F8               RET M
D807: 01 F8 01         LD BC, 0x01F8
D80A: FC 00 00         CALL M, 0x0000
D80D: 00               NOP
D80E: 00               NOP
D80F: 00               NOP
D810: FE 00            CP 0x00
D812: 00               NOP
D813: F8               RET M
D814: 00               NOP
D815: 0F               RRCA
D816: FC 00 00         CALL M, 0x0000
D819: FF               RST 0x38
D81A: 00               NOP
D81B: 1E 01            LD E, 0x01
D81D: 03               INC BC
D81E: C0               RET NZ
D81F: 3C               INC A
D820: 00               NOP
D821: 1F               RRA
D822: FF               RST 0x38
D823: FF               RST 0x38
D824: FF               RST 0x38
D825: 00               NOP
D826: 00               NOP
D827: F8               RET M
D828: 00               NOP
D829: 3F               CCF
D82A: 80               ADD A, B
D82B: FF               RST 0x38
D82C: 00               NOP
D82D: 00               NOP
D82E: FF               RST 0x38
D82F: FF               RST 0x38
D830: FF               RST 0x38
D831: 07               RLCA
D832: 00               NOP
D833: 03               INC BC
D834: FE 00            CP 0x00
D836: 00               NOP
D837: 00               NOP
D838: 00               NOP
D839: 00               NOP
D83A: 01 F8 01         LD BC, 0x01F8
D83D: 00               NOP
D83E: 78               LD A, B
D83F: 00               NOP
D840: FE 00            CP 0x00
D842: 00               NOP
D843: 00               NOP
D844: 00               NOP
D845: 0F               RRCA
D846: F0               RET P
D847: 00               NOP
D848: 0F               RRCA
D849: C0               RET NZ
D84A: 00               NOP
D84B: FF               RST 0x38
D84C: FF               RST 0x38
D84D: FF               RST 0x38
D84E: 00               NOP
D84F: 00               NOP
D850: 00               NOP
D851: 00               NOP
D852: C0               RET NZ
D853: 00               NOP
D854: 00               NOP
D855: FF               RST 0x38
D856: E0               RET PO
D857: 00               NOP
D858: 00               NOP
D859: 00               NOP
D85A: FF               RST 0x38
D85B: 80               ADD A, B
D85C: 00               NOP
D85D: 00               NOP
D85E: 1F               RRA
D85F: E0               RET PO
D860: 00               NOP
D861: 0F               RRCA
D862: FF               RST 0x38
D863: FF               RST 0x38
D864: F8               RET M
D865: 00               NOP
D866: 00               NOP
D867: 3F               CCF
D868: F0               RET P
D869: 00               NOP
D86A: 00               NOP
D86B: 00               NOP
D86C: 00               NOP
D86D: 00               NOP
D86E: FF               RST 0x38
D86F: FF               RST 0x38
D870: FF               RST 0x38
D871: FF               RST 0x38
D872: 00               NOP
D873: E0               RET PO
D874: 00               NOP
D875: 00               NOP
D876: 03               INC BC
D877: FF               RST 0x38
D878: FF               RST 0x38
D879: FF               RST 0x38
D87A: C0               RET NZ
D87B: 00               NOP
D87C: 01 00 00         LD BC, 0x0000
D87F: 7F               LD A, A
D880: C0               RET NZ
D881: 00               NOP
D882: 00               NOP
D883: 00               NOP
D884: 00               NOP
D885: 07               RLCA
D886: FF               RST 0x38
D887: 80               ADD A, B
D888: 00               NOP
D889: 00               NOP
D88A: FF               RST 0x38
D88B: FF               RST 0x38
D88C: FF               RST 0x38
D88D: FF               RST 0x38
D88E: 00               NOP
D88F: 00               NOP
D890: 00               NOP
D891: 00               NOP
D892: 00               NOP
D893: 00               NOP
D894: E0               RET PO
D895: 00               NOP
D896: 00               NOP
D897: 00               NOP
D898: 00               NOP
D899: 00               NOP
D89A: 00               NOP
D89B: 00               NOP
D89C: 01 00 00         LD BC, 0x0000
D89F: 00               NOP
D8A0: 7F               LD A, A
D8A1: FF               RST 0x38
D8A2: FF               RST 0x38
D8A3: FF               RST 0x38
D8A4: FF               RST 0x38
D8A5: F0               RET P
D8A6: 00               NOP
D8A7: 00               NOP
D8A8: 00               NOP
D8A9: 00               NOP
D8AA: 00               NOP
D8AB: 00               NOP
D8AC: 00               NOP
D8AD: 00               NOP
D8AE: 00               NOP
D8AF: 00               NOP
D8B0: 00               NOP
D8B1: 00               NOP
D8B2: 00               NOP
D8B3: 00               NOP
D8B4: 00               NOP
D8B5: FF               RST 0x38
D8B6: 00               NOP
D8B7: 00               NOP
D8B8: 00               NOP
D8B9: 00               NOP
D8BA: 00               NOP
D8BB: 00               NOP
D8BC: 07               RLCA
D8BD: 00               NOP
D8BE: FF               RST 0x38
D8BF: FF               RST 0x38
D8C0: 00               NOP
D8C1: 00               NOP
D8C2: 00               NOP
D8C3: 00               NOP
D8C4: 00               NOP
D8C5: 00               NOP
D8C6: FF               RST 0x38
D8C7: 00               NOP
D8C8: 00               NOP
D8C9: 00               NOP
D8CA: 00               NOP
D8CB: 10 41            DJNZ 0xD90E
D8CD: 5D               LD E, L
D8CE: 00               NOP
D8CF: FF               RST 0x38
D8D0: 00               NOP
D8D1: FC 00 FC         CALL M, 0xFC00
D8D4: 00               NOP
D8D5: 00               NOP
D8D6: 00               NOP
D8D7: 3F               CCF
D8D8: E0               RET PO
D8D9: 00               NOP
D8DA: C0               RET NZ
D8DB: 70               LD (HL), B
D8DC: 38 81            JR C, 0xD85F
D8DE: 83               ADD A, E
D8DF: 80               ADD A, B
D8E0: 00               NOP
D8E1: FF               RST 0x38
D8E2: 00               NOP
D8E3: 00               NOP
D8E4: 3F               CCF
D8E5: F0               RET P
D8E6: 03               INC BC
D8E7: 00               NOP
D8E8: F0               RET P
D8E9: 03               INC BC
D8EA: E0               RET PO
D8EB: 00               NOP
D8EC: 3F               CCF
D8ED: 00               NOP
D8EE: FF               RST 0x38
D8EF: FF               RST 0x38
D8F0: 00               NOP
D8F1: 07               RLCA
D8F2: C0               RET NZ
D8F3: 07               RLCA
D8F4: F0               RET P
D8F5: 00               NOP
D8F6: C0               RET NZ
D8F7: FF               RST 0x38
D8F8: 00               NOP
D8F9: C0               RET NZ
D8FA: 07               RLCA
D8FB: C0               RET NZ
D8FC: 60               LD H, B
D8FD: C0               RET NZ
D8FE: E0               RET PO
D8FF: 7C               LD A, H
D900: FC 00 00         CALL M, 0x0000
D903: 00               NOP
D904: 00               NOP
D905: 03               INC BC
D906: 00               NOP
D907: 7E               LD A, (HL)
D908: 00               NOP
D909: 7F               LD A, A
D90A: 00               NOP
D90B: 07               RLCA
D90C: FF               RST 0x38
D90D: FF               RST 0x38
D90E: FF               RST 0x38
D90F: FF               RST 0x38
D910: 00               NOP
D911: 00               NOP
D912: 7E               LD A, (HL)
D913: 00               NOP
D914: 03               INC BC
D915: F8               RET M
D916: 00               NOP
D917: 00               NOP
D918: 00               NOP
D919: 00               NOP
D91A: F8               RET M
D91B: 01 E0 E0         LD BC, 0xE0E0
D91E: 3C               INC A
D91F: 01 F0 00         LD BC, 0x00F0
D922: 00               NOP
D923: 00               NOP
D924: 00               NOP
D925: 00               NOP
D926: FC 00 1F         CALL M, 0x1F00
D929: C0               RET NZ
D92A: 00               NOP
D92B: 00               NOP
D92C: FF               RST 0x38
D92D: FF               RST 0x38
D92E: 00               NOP
D92F: 00               NOP
D930: 00               NOP
D931: FF               RST 0x38
D932: 03               INC BC
D933: FF               RST 0x38
D934: 00               NOP
D935: 00               NOP
D936: 7F               LD A, A
D937: FF               RST 0x38
D938: FF               RST 0x38
D939: FE 00            CP 0x00
D93B: 0F               RRCA
D93C: C0               RET NZ
D93D: E0               RET PO
D93E: 03               INC BC
D93F: E0               RET PO
D940: 00               NOP
D941: 3F               CCF
D942: FF               RST 0x38
D943: FF               RST 0x38
D944: FF               RST 0x38
D945: 80               ADD A, B
D946: 00               NOP
D947: 1F               RRA
D948: C0               RET NZ
D949: 00               NOP
D94A: 07               RLCA
D94B: 00               NOP
D94C: 00               NOP
D94D: 00               NOP
D94E: FF               RST 0x38
D94F: FF               RST 0x38
D950: FF               RST 0x38
D951: FF               RST 0x38
D952: 00               NOP
D953: 00               NOP
D954: FF               RST 0x38
D955: 80               ADD A, B
D956: 00               NOP
D957: 00               NOP
D958: 00               NOP
D959: 00               NOP
D95A: 00               NOP
D95B: 7F               LD A, A
D95C: 00               NOP
D95D: FC 00 1F         CALL M, 0x1F00
D960: F0               RET P
D961: 00               NOP
D962: 00               NOP
D963: 00               NOP
D964: 00               NOP
D965: 03               INC BC
D966: FF               RST 0x38
D967: 80               ADD A, B
D968: 00               NOP
D969: 07               RLCA
D96A: FF               RST 0x38
D96B: FF               RST 0x38
D96C: FF               RST 0x38
D96D: FF               RST 0x38
D96E: 00               NOP
D96F: 00               NOP
D970: 00               NOP
D971: 00               NOP
D972: FF               RST 0x38
D973: 00               NOP
D974: 00               NOP
D975: 7F               LD A, A
D976: FF               RST 0x38
D977: F8               RET M
D978: 00               NOP
D979: 0F               RRCA
D97A: FF               RST 0x38
D97B: FC 00 FF         CALL M, 0xFF00
D97E: 00               NOP
D97F: 00               NOP
D980: 03               INC BC
D981: FF               RST 0x38
D982: FF               RST 0x38
D983: FF               RST 0x38
D984: FF               RST 0x38
D985: 80               ADD A, B
D986: 00               NOP
D987: 00               NOP
D988: 01 FF 00         LD BC, 0x00FF
D98B: 00               NOP
D98C: 00               NOP
D98D: 00               NOP
D98E: FF               RST 0x38
D98F: FF               RST 0x38
D990: FF               RST 0x38
D991: FF               RST 0x38
D992: FF               RST 0x38
D993: FF               RST 0x38
D994: 00               NOP
D995: 00               NOP
D996: 00               NOP
D997: 07               RLCA
D998: FF               RST 0x38
D999: FF               RST 0x38
D99A: E0               RET PO
D99B: 00               NOP
D99C: 00               NOP
D99D: FF               RST 0x38
D99E: F0               RET P
D99F: 00               NOP
D9A0: 00               NOP
D9A1: 00               NOP
D9A2: 00               NOP
D9A3: 00               NOP
D9A4: 00               NOP
D9A5: 00               NOP
D9A6: 00               NOP
D9A7: 1F               RRA
D9A8: FF               RST 0x38
D9A9: FF               RST 0x38
D9AA: FF               RST 0x38
D9AB: FF               RST 0x38
D9AC: FF               RST 0x38
D9AD: FF               RST 0x38
D9AE: FF               RST 0x38
D9AF: FF               RST 0x38
D9B0: FF               RST 0x38
D9B1: FF               RST 0x38
D9B2: FF               RST 0x38
D9B3: FF               RST 0x38
D9B4: FF               RST 0x38
D9B5: 00               NOP
D9B6: 00               NOP
D9B7: 00               NOP
D9B8: 00               NOP
D9B9: 00               NOP
D9BA: 00               NOP
D9BB: 00               NOP
D9BC: 00               NOP
D9BD: FF               RST 0x38
D9BE: 00               NOP
D9BF: 1F               RRA
D9C0: 00               NOP
D9C1: 00               NOP
D9C2: 00               NOP
D9C3: 00               NOP
D9C4: 00               NOP
D9C5: 1F               RRA
D9C6: 00               NOP
D9C7: FF               RST 0x38
D9C8: FF               RST 0x38
D9C9: FF               RST 0x38
D9CA: FF               RST 0x38
D9CB: FD DD            DD PREFIX
D9CD: 6B               LD L, E
D9CE: 00               NOP
D9CF: FF               RST 0x38
D9D0: FF               RST 0x38
D9D1: 80               ADD A, B
D9D2: 00               NOP
D9D3: 80               ADD A, B
D9D4: 1F               RRA
D9D5: 00               NOP
D9D6: 7F               LD A, A
D9D7: E0               RET PO
D9D8: 7F               LD A, A
D9D9: E0               RET PO
D9DA: F8               RET M
D9DB: 0E 0E            LD C, 0x0E
D9DD: F0               RET P
D9DE: 70               LD (HL), B
D9DF: 30 F8            JR NC, 0xD9D9
D9E1: 00               NOP
D9E2: 00               NOP
D9E3: 00               NOP
D9E4: 80               ADD A, B
D9E5: 00               NOP
D9E6: FF               RST 0x38
D9E7: 1E 00            LD E, 0x00
D9E9: 78               LD A, B
D9EA: 00               NOP
D9EB: 7F               LD A, A
D9EC: FF               RST 0x38
D9ED: 00               NOP
D9EE: FF               RST 0x38
D9EF: FF               RST 0x38
D9F0: 07               RLCA
D9F1: F0               RET P
D9F2: 00               NOP
D9F3: FE 00            CP 0x00
D9F5: 1F               RRA
D9F6: 00               NOP
D9F7: FF               RST 0x38
D9F8: 00               NOP
D9F9: FF               RST 0x38
D9FA: 00               NOP
D9FB: 78               LD A, B
D9FC: 0C               INC C
D9FD: F8               RET M
D9FE: 1E 03            LD E, 0x03
DA00: 3F               CCF
DA01: FE 00            CP 0x00
DA03: 00               NOP
DA04: 1F               RRA
DA05: FF               RST 0x38
DA06: 3F               CCF
DA07: 80               ADD A, B
DA08: 00               NOP
DA09: 80               ADD A, B
DA0A: 0F               RRCA
DA0B: FF               RST 0x38
DA0C: FF               RST 0x38
DA0D: FF               RST 0x38
DA0E: FF               RST 0x38
DA0F: FF               RST 0x38
DA10: 00               NOP
DA11: 7F               LD A, A
DA12: 80               ADD A, B
DA13: 00               NOP
DA14: FC 00 00         CALL M, 0x0000
DA17: 00               NOP
DA18: 00               NOP
DA19: 00               NOP
DA1A: 07               RLCA
DA1B: C0               RET NZ
DA1C: 1E FE            LD E, 0xFE
DA1E: 03               INC BC
DA1F: 00               NOP
DA20: 01 FC 00         LD BC, 0x00FC
DA23: 00               NOP
DA24: 07               RLCA
DA25: F8               RET M
DA26: 00               NOP
DA27: 00               NOP
DA28: C0               RET NZ
DA29: 01 FF 00         LD BC, 0x00FF
DA2C: FF               RST 0x38
DA2D: FF               RST 0x38
DA2E: 00               NOP
DA2F: 00               NOP
DA30: 00               NOP
DA31: F8               RET M
DA32: FF               RST 0x38
DA33: 80               ADD A, B
DA34: 00               NOP
DA35: FF               RST 0x38
DA36: F8               RET M
DA37: 00               NOP
DA38: 00               NOP
DA39: 0F               RRCA
DA3A: FC 00 7E         CALL M, 0x7E00
DA3D: FF               RST 0x38
DA3E: 80               ADD A, B
DA3F: 0F               RRCA
DA40: C0               RET NZ
DA41: 00               NOP
DA42: 00               NOP
DA43: 00               NOP
DA44: 00               NOP
DA45: 00               NOP
DA46: 3F               CCF
DA47: 80               ADD A, B
DA48: 00               NOP
DA49: 3F               CCF
DA4A: FF               RST 0x38
DA4B: 00               NOP
DA4C: 00               NOP
DA4D: 00               NOP
DA4E: FF               RST 0x38
DA4F: FF               RST 0x38
DA50: FF               RST 0x38
DA51: FF               RST 0x38
DA52: 07               RLCA
DA53: FF               RST 0x38
DA54: 00               NOP
DA55: 00               NOP
DA56: 00               NOP
DA57: 00               NOP
DA58: 00               NOP
DA59: 00               NOP
DA5A: 00               NOP
DA5B: 00               NOP
DA5C: 7E               LD A, (HL)
DA5D: FF               RST 0x38
DA5E: F8               RET M
DA5F: 00               NOP
DA60: 07               RLCA
DA61: FF               RST 0x38
DA62: FF               RST 0x38
DA63: FF               RST 0x38
DA64: FF               RST 0x38
DA65: F8               RET M
DA66: 00               NOP
DA67: 00               NOP
DA68: FF               RST 0x38
DA69: FF               RST 0x38
DA6A: FF               RST 0x38
DA6B: FF               RST 0x38
DA6C: FF               RST 0x38
DA6D: FF               RST 0x38
DA6E: 00               NOP
DA6F: 00               NOP
DA70: 00               NOP
DA71: 00               NOP
DA72: FF               RST 0x38
DA73: 1F               RRA
DA74: FF               RST 0x38
DA75: F0               RET P
DA76: 00               NOP
DA77: 00               NOP
DA78: 00               NOP
DA79: 00               NOP
DA7A: 00               NOP
DA7B: 0F               RRCA
DA7C: FF               RST 0x38
DA7D: FF               RST 0x38
DA7E: FF               RST 0x38
DA7F: C0               RET NZ
DA80: 00               NOP
DA81: 00               NOP
DA82: 00               NOP
DA83: 00               NOP
DA84: 00               NOP
DA85: 00               NOP
DA86: 01 FF FF         LD BC, 0xFFFF
DA89: FF               RST 0x38
DA8A: 00               NOP
DA8B: 00               NOP
DA8C: 00               NOP
DA8D: 00               NOP
DA8E: FF               RST 0x38
DA8F: FF               RST 0x38
DA90: FF               RST 0x38
DA91: FF               RST 0x38
DA92: FF               RST 0x38
DA93: FF               RST 0x38
DA94: 00               NOP
DA95: FF               RST 0x38
DA96: FF               RST 0x38
DA97: F8               RET M
DA98: 00               NOP
DA99: 00               NOP
DA9A: 1F               RRA
DA9B: FF               RST 0x38
DA9C: F8               RET M
DA9D: FF               RST 0x38
DA9E: FF               RST 0x38
DA9F: FF               RST 0x38
DAA0: FE 00            CP 0x00
DAA2: 00               NOP
DAA3: 00               NOP
DAA4: 1F               RRA
DAA5: FF               RST 0x38
DAA6: FF               RST 0x38
DAA7: FF               RST 0x38
DAA8: FF               RST 0x38
DAA9: FF               RST 0x38
DAAA: FF               RST 0x38
DAAB: FF               RST 0x38
DAAC: FF               RST 0x38
DAAD: FF               RST 0x38
DAAE: FF               RST 0x38
DAAF: FF               RST 0x38
DAB0: FF               RST 0x38
DAB1: FF               RST 0x38
DAB2: FF               RST 0x38
DAB3: FF               RST 0x38
DAB4: FF               RST 0x38
DAB5: 00               NOP
DAB6: 00               NOP
DAB7: FF               RST 0x38
DAB8: FF               RST 0x38
DAB9: FF               RST 0x38
DABA: FF               RST 0x38
DABB: FF               RST 0x38
DABC: 00               NOP
DABD: FF               RST 0x38
DABE: 00               NOP
DABF: 00               NOP
DAC0: FF               RST 0x38
DAC1: FF               RST 0x38
DAC2: FF               RST 0x38
DAC3: FF               RST 0x38
DAC4: FF               RST 0x38
DAC5: FF               RST 0x38
DAC6: 00               NOP
DAC7: FF               RST 0x38
DAC8: FF               RST 0x38
DAC9: FF               RST 0x38
DACA: FF               RST 0x38
DACB: FD C3 77 FF      JP 0xFF77
DACF: 00               NOP
DAD0: C0               RET NZ
DAD1: 00               NOP
DAD2: 00               NOP
DAD3: 03               INC BC
DAD4: FF               RST 0x38
DAD5: 1F               RRA
DAD6: 80               ADD A, B
DAD7: 00               NOP
DAD8: 00               NOP
DAD9: 3F               CCF
DADA: FF               RST 0x38
DADB: 03               INC BC
DADC: 01 3E 0E         LD BC, 0x0E3E
DADF: 03               INC BC
DAE0: 7F               LD A, A
DAE1: F0               RET P
DAE2: 00               NOP
DAE3: 00               NOP
DAE4: 00               NOP
DAE5: FF               RST 0x38
DAE6: F8               RET M
DAE7: 80               ADD A, B
DAE8: 0F               RRCA
DAE9: 00               NOP
DAEA: 1F               RRA
DAEB: FE 00            CP 0x00
DAED: FF               RST 0x38
DAEE: 00               NOP
DAEF: 00               NOP
DAF0: F0               RET P
DAF1: 00               NOP
DAF2: 00               NOP
DAF3: C0               RET NZ
DAF4: 03               INC BC
DAF5: FF               RST 0x38
DAF6: 00               NOP
DAF7: 80               ADD A, B
DAF8: E0               RET PO
DAF9: FF               RST 0x38
DAFA: F0               RET P
DAFB: 0F               RRCA
DAFC: 01 3F 81         LD BC, 0x813F
DAFF: 00               NOP
DB00: E0               RET PO
DB01: 3F               CCF
DB02: FF               RST 0x38
DB03: FF               RST 0x38
DB04: FF               RST 0x38
DB05: 80               ADD A, B
DB06: 80               ADD A, B
DB07: 00               NOP
DB08: 00               NOP
DB09: 07               RLCA
DB0A: FF               RST 0x38
DB0B: F8               RET M
DB0C: 00               NOP
DB0D: 00               NOP
DB0E: 00               NOP
DB0F: 00               NOP
DB10: FF               RST 0x38
DB11: 00               NOP
DB12: 00               NOP
DB13: 3F               CCF
DB14: 00               NOP
DB15: 00               NOP
DB16: 3F               CCF
DB17: FF               RST 0x38
DB18: FF               RST 0x38
DB19: F0               RET P
DB1A: 00               NOP
DB1B: 3C               INC A
DB1C: 01 1F E0         LD BC, 0xE01F
DB1F: 00               NOP
DB20: 00               NOP
DB21: 00               NOP
DB22: 03               INC BC
DB23: FC 00 00         CALL M, 0x0000
DB26: 00               NOP
DB27: 00               NOP
DB28: 01 FF FF         LD BC, 0xFFFF
DB2B: 7F               LD A, A
DB2C: 00               NOP
DB2D: 00               NOP
DB2E: FF               RST 0x38
DB2F: FF               RST 0x38
DB30: FF               RST 0x38
DB31: 00               NOP
DB32: 00               NOP
DB33: 00               NOP
DB34: 7F               LD A, A
DB35: E0               RET PO
DB36: 00               NOP
DB37: 00               NOP
DB38: 00               NOP
DB39: 00               NOP
DB3A: 0F               RRCA
DB3B: F0               RET P
DB3C: 01 07 FC         LD BC, 0xFC07
DB3F: 00               NOP
DB40: 0F               RRCA
DB41: FC 00 00         CALL M, 0x0000
DB44: 07               RLCA
DB45: FE 00            CP 0x00
DB47: 00               NOP
DB48: 7F               LD A, A
DB49: FF               RST 0x38
DB4A: 80               ADD A, B
DB4B: FF               RST 0x38
DB4C: FF               RST 0x38
DB4D: FF               RST 0x38
DB4E: 00               NOP
DB4F: 00               NOP
DB50: 00               NOP
DB51: 00               NOP
DB52: F0               RET P
DB53: 00               NOP
DB54: 00               NOP
DB55: 00               NOP
DB56: 00               NOP
DB57: 00               NOP
DB58: 00               NOP
DB59: 00               NOP
DB5A: 00               NOP
DB5B: 00               NOP
DB5C: 00               NOP
DB5D: 03               INC BC
DB5E: FF               RST 0x38
DB5F: FC 00 00         CALL M, 0x0000
DB62: 00               NOP
DB63: 00               NOP
DB64: 00               NOP
DB65: 00               NOP
DB66: 07               RLCA
DB67: FF               RST 0x38
DB68: FF               RST 0x38
DB69: F8               RET M
DB6A: 00               NOP
DB6B: 00               NOP
DB6C: 00               NOP
DB6D: 00               NOP
DB6E: FF               RST 0x38
DB6F: FF               RST 0x38
DB70: FF               RST 0x38
DB71: FF               RST 0x38
DB72: 00               NOP
DB73: FE 00            CP 0x00
DB75: 00               NOP
DB76: 00               NOP
DB77: 00               NOP
DB78: 02               LD (BC), A
DB79: 00               NOP
DB7A: 00               NOP
DB7B: 00               NOP
DB7C: 03               INC BC
DB7D: 00               NOP
DB7E: 3F               CCF
DB7F: FF               RST 0x38
DB80: FF               RST 0x38
DB81: 00               NOP
DB82: 00               NOP
DB83: 00               NOP
DB84: 03               INC BC
DB85: FF               RST 0x38
DB86: FF               RST 0x38
DB87: FF               RST 0x38
DB88: E0               RET PO
DB89: 00               NOP
DB8A: FF               RST 0x38
DB8B: FF               RST 0x38
DB8C: FF               RST 0x38
DB8D: FF               RST 0x38
DB8E: 00               NOP
DB8F: 00               NOP
DB90: 00               NOP
DB91: 00               NOP
DB92: 00               NOP
DB93: 00               NOP
DB94: FE 00            CP 0x00
DB96: 00               NOP
DB97: 00               NOP
DB98: 00               NOP
DB99: 00               NOP
DB9A: 00               NOP
DB9B: 00               NOP
DB9C: 03               INC BC
DB9D: 00               NOP
DB9E: 0F               RRCA
DB9F: FF               RST 0x38
DBA0: FF               RST 0x38
DBA1: FF               RST 0x38
DBA2: FF               RST 0x38
DBA3: FF               RST 0x38
DBA4: FF               RST 0x38
DBA5: FF               RST 0x38
DBA6: FF               RST 0x38
DBA7: C0               RET NZ
DBA8: 00               NOP
DBA9: 00               NOP
DBAA: 00               NOP
DBAB: 00               NOP
DBAC: 00               NOP
DBAD: 00               NOP
DBAE: 00               NOP
DBAF: 00               NOP
DBB0: 00               NOP
DBB1: 00               NOP
DBB2: 00               NOP
DBB3: 00               NOP
DBB4: 00               NOP
DBB5: FF               RST 0x38
DBB6: FE 00            CP 0x00
DBB8: 00               NOP
DBB9: 00               NOP
DBBA: 00               NOP
DBBB: 00               NOP
DBBC: 1F               RRA
DBBD: 00               NOP
DBBE: FF               RST 0x38
DBBF: C0               RET NZ
DBC0: FF               RST 0x38
DBC1: FF               RST 0x38
DBC2: FF               RST 0x38
DBC3: FF               RST 0x38
DBC4: FF               RST 0x38
DBC5: E0               RET PO
DBC6: FF               RST 0x38
DBC7: 00               NOP
DBC8: 00               NOP
DBC9: 00               NOP
DBCA: 00               NOP
DBCB: 05               DEC B
DBCC: DD 6B            LD IXL, E
DBCE: 00               NOP
DBCF: FF               RST 0x38
DBD0: 00               NOP
DBD1: 00               NOP
DBD2: 00               NOP
DBD3: 3F               CCF
DBD4: F8               RET M
DBD5: E0               RET PO
DBD6: 00               NOP
DBD7: 00               NOP
DBD8: 00               NOP
DBD9: 00               NOP
DBDA: 0F               RRCA
DBDB: F0               RET P
DBDC: 00               NOP
DBDD: 8F               ADC A, A
DBDE: 80               ADD A, B
DBDF: C0               RET NZ
DBE0: C3 FF 00         JP 0x00FF
DBE3: 00               NOP
DBE4: FF               RST 0x38
DBE5: FC 1F 03         CALL M, 0x031F
DBE8: C0               RET NZ
DBE9: 07               RLCA
DBEA: FE 00            CP 0x00
DBEC: FF               RST 0x38
DBED: 00               NOP
DBEE: FF               RST 0x38
DBEF: FF               RST 0x38
DBF0: 00               NOP
DBF1: 00               NOP
DBF2: 00               NOP
DBF3: 00               NOP
DBF4: FF               RST 0x38
DBF5: FE FF            CP 0xFF
DBF7: 5F               LD E, A
DBF8: 1F               RRA
DBF9: 07               RLCA
DBFA: FF               RST 0x38
DBFB: 00               NOP
DBFC: 00               NOP
DBFD: C7               RST 0x00
DBFE: F0               RET P
DBFF: 00               NOP
DC00: FF               RST 0x38
DC01: E0               RET PO
DC02: 00               NOP
DC03: 00               NOP
DC04: 00               NOP
DC05: 7F               LD A, A
DC06: 00               NOP
DC07: 00               NOP
DC08: 00               NOP
DC09: FF               RST 0x38
DC0A: F0               RET P
DC0B: 1F               RRA
DC0C: FF               RST 0x38
DC0D: FF               RST 0x38
DC0E: FF               RST 0x38
DC0F: FF               RST 0x38
DC10: 00               NOP
DC11: 00               NOP
DC12: 0F               RRCA
DC13: C0               RET NZ
DC14: 00               NOP
DC15: 3F               CCF
DC16: FF               RST 0x38
DC17: FF               RST 0x38
DC18: FF               RST 0x38
DC19: FF               RST 0x38
DC1A: E0               RET PO
DC1B: 01 C0 E1         LD BC, 0xE1C0
DC1E: FF               RST 0x38
DC1F: 00               NOP
DC20: 00               NOP
DC21: 00               NOP
DC22: 00               NOP
DC23: 00               NOP
DC24: 00               NOP
DC25: 00               NOP
DC26: 00               NOP
DC27: 00               NOP
DC28: FF               RST 0x38
DC29: FE 01            CP 0x01
DC2B: 00               NOP
DC2C: FF               RST 0x38
DC2D: FF               RST 0x38
DC2E: 00               NOP
DC2F: 00               NOP
DC30: 00               NOP
DC31: FF               RST 0x38
DC32: 00               NOP
DC33: 7F               LD A, A
DC34: E0               RET PO
DC35: 00               NOP
DC36: 00               NOP
DC37: FF               RST 0x38
DC38: FF               RST 0x38
DC39: 80               ADD A, B
DC3A: 00               NOP
DC3B: 1F               RRA
DC3C: C0               RET NZ
DC3D: F0               RET P
DC3E: 3F               CCF
DC3F: F8               RET M
DC40: 00               NOP
DC41: 00               NOP
DC42: 0C               INC C
DC43: C0               RET NZ
DC44: 00               NOP
DC45: 00               NOP
DC46: 01 FF FE         LD BC, 0xFEFF
DC49: 00               NOP
DC4A: 1F               RRA
DC4B: 00               NOP
DC4C: 00               NOP
DC4D: 00               NOP
DC4E: FF               RST 0x38
DC4F: FF               RST 0x38
DC50: FF               RST 0x38
DC51: FF               RST 0x38
DC52: 00               NOP
DC53: 00               NOP
DC54: 00               NOP
DC55: 00               NOP
DC56: 00               NOP
DC57: 00               NOP
DC58: 00               NOP
DC59: 00               NOP
DC5A: 00               NOP
DC5B: 00               NOP
DC5C: 00               NOP
DC5D: FE 07            CP 0x07
DC5F: FF               RST 0x38
DC60: FF               RST 0x38
DC61: C0               RET NZ
DC62: 00               NOP
DC63: 00               NOP
DC64: 03               INC BC
DC65: FF               RST 0x38
DC66: FF               RST 0x38
DC67: FF               RST 0x38
DC68: 00               NOP
DC69: 3F               CCF
DC6A: FF               RST 0x38
DC6B: FF               RST 0x38
DC6C: FF               RST 0x38
DC6D: FF               RST 0x38
DC6E: 00               NOP
DC6F: 00               NOP
DC70: 00               NOP
DC71: 00               NOP
DC72: FF               RST 0x38
DC73: 00               NOP
DC74: 00               NOP
DC75: 03               INC BC
DC76: FF               RST 0x38
DC77: FF               RST 0x38
DC78: FF               RST 0x38
DC79: FF               RST 0x38
DC7A: FF               RST 0x38
DC7B: F0               RET P
DC7C: 00               NOP
DC7D: FF               RST 0x38
DC7E: 80               ADD A, B
DC7F: 07               RLCA
DC80: FF               RST 0x38
DC81: FF               RST 0x38
DC82: FF               RST 0x38
DC83: FF               RST 0x38
DC84: FF               RST 0x38
DC85: FF               RST 0x38
DC86: C0               RET NZ
DC87: 00               NOP
DC88: 1F               RRA
DC89: FF               RST 0x38
DC8A: 00               NOP
DC8B: 00               NOP
DC8C: 00               NOP
DC8D: 00               NOP
DC8E: FF               RST 0x38
DC8F: FF               RST 0x38
DC90: FF               RST 0x38
DC91: FF               RST 0x38
DC92: FF               RST 0x38
DC93: FF               RST 0x38
DC94: 00               NOP
DC95: 00               NOP
DC96: 00               NOP
DC97: 00               NOP
DC98: 00               NOP
DC99: 00               NOP
DC9A: 00               NOP
DC9B: 00               NOP
DC9C: 00               NOP
DC9D: FF               RST 0x38
DC9E: FC 00 00         CALL M, 0x0000
DCA1: 3F               CCF
DCA2: FF               RST 0x38
DCA3: FE 00            CP 0x00
DCA5: 00               NOP
DCA6: 07               RLCA
DCA7: FF               RST 0x38
DCA8: FF               RST 0x38
DCA9: FF               RST 0x38
DCAA: FF               RST 0x38
DCAB: FF               RST 0x38
DCAC: FF               RST 0x38
DCAD: FF               RST 0x38
DCAE: FF               RST 0x38
DCAF: FF               RST 0x38
DCB0: FF               RST 0x38
DCB1: FF               RST 0x38
DCB2: FF               RST 0x38
DCB3: FF               RST 0x38
DCB4: FF               RST 0x38
DCB5: 00               NOP
DCB6: 00               NOP
DCB7: 00               NOP
DCB8: 00               NOP
DCB9: 00               NOP
DCBA: 00               NOP
DCBB: 00               NOP
DCBC: 00               NOP
DCBD: FF               RST 0x38
DCBE: 00               NOP
DCBF: 00               NOP
DCC0: 00               NOP
DCC1: 00               NOP
DCC2: 00               NOP
DCC3: 00               NOP
DCC4: 0F               RRCA
DCC5: FF               RST 0x38
DCC6: 00               NOP
DCC7: FF               RST 0x38
DCC8: FF               RST 0x38
DCC9: FF               RST 0x38
DCCA: FF               RST 0x38
DCCB: FD DD            DD PREFIX
DCCD: 5D               LD E, L
DCCE: 38 38            JR C, 0xDD08
DCD0: 38 38            JR C, 0xDD0A
DCD2: 38 38            JR C, 0xDD0C
DCD4: 38 38            JR C, 0xDD0E
DCD6: 07               RLCA
DCD7: 38 38            JR C, 0xDD11
DCD9: 38 38            JR C, 0xDD13
DCDB: 38 07            JR C, 0xDCE4
DCDD: 07               RLCA
DCDE: 38 07            JR C, 0xDCE7
DCE0: 07               RLCA
DCE1: 07               RLCA
DCE2: 07               RLCA
DCE3: 07               RLCA
DCE4: 07               RLCA
DCE5: 07               RLCA
DCE6: 07               RLCA
DCE7: 38 38            JR C, 0xDD21
DCE9: 38 38            JR C, 0xDD23
DCEB: 38 38            JR C, 0xDD25
DCED: 38 3D            JR C, 0xDD2C
DCEF: 3D               DEC A
DCF0: 3D               DEC A
DCF1: 3D               DEC A
DCF2: 3D               DEC A
DCF3: 3D               DEC A
DCF4: 2F               CPL
DCF5: 2F               CPL
DCF6: 2F               CPL
DCF7: 2F               CPL
DCF8: 2F               CPL
DCF9: 2F               CPL
DCFA: 2F               CPL
DCFB: 2F               CPL
DCFC: 2F               CPL
DCFD: 2F               CPL
DCFE: 3D               DEC A
DCFF: 3D               DEC A
DD00: 3D               DEC A
DD01: 3D               DEC A
DD02: 3D               DEC A
DD03: 3D               DEC A
DD04: 3D               DEC A
DD05: 3D               DEC A
DD06: 3D               DEC A
DD07: 2F               CPL
DD08: 3D               DEC A
DD09: 3D               DEC A
DD0A: 3D               DEC A
DD0B: 3D               DEC A
DD0C: 3D               DEC A
DD0D: 3D               DEC A
DD0E: 2C               INC L
DD0F: 2C               INC L
DD10: 2C               INC L
DD11: 2C               INC L
DD12: 2C               INC L
DD13: 25               DEC H
DD14: 25               DEC H
DD15: 25               DEC H
DD16: 25               DEC H
DD17: 25               DEC H
DD18: 25               DEC H
DD19: 25               DEC H
DD1A: 25               DEC H
DD1B: 25               DEC H
DD1C: 25               DEC H
DD1D: 25               DEC H
DD1E: 25               DEC H
DD1F: 2C               INC L
DD20: 2C               INC L
DD21: 2C               INC L
DD22: 2C               INC L
DD23: 2C               INC L
DD24: 2C               INC L
DD25: 2C               INC L
DD26: 2C               INC L
DD27: 2C               INC L
DD28: 2C               INC L
DD29: 25               DEC H
DD2A: 2C               INC L
DD2B: 2C               INC L
DD2C: 2C               INC L
DD2D: 2C               INC L
DD2E: 34               INC (HL)
DD2F: 34               INC (HL)
DD30: 34               INC (HL)
DD31: 34               INC (HL)
DD32: 26 34            LD H, 0x34
DD34: 34               INC (HL)
DD35: 34               INC (HL)
DD36: 34               INC (HL)
DD37: 34               INC (HL)
DD38: 32 32 32         LD (0x3232), A
DD3B: 34               INC (HL)
DD3C: 34               INC (HL)
DD3D: 34               INC (HL)
DD3E: 26 26            LD H, 0x26
DD40: 26 26            LD H, 0x26
DD42: 26 26            LD H, 0x26
DD44: 26 26            LD H, 0x26
DD46: 26 26            LD H, 0x26
DD48: 26 26            LD H, 0x26
DD4A: 26 34            LD H, 0x34
DD4C: 34               INC (HL)
DD4D: 34               INC (HL)
DD4E: 32 32 32         LD (0x3232), A
DD51: 16 16            LD D, 0x16
DD53: 16 16            LD D, 0x16
DD55: 13               INC DE
DD56: 13               INC DE
DD57: 13               INC DE
DD58: 13               INC DE
DD59: 13               INC DE
DD5A: 13               INC DE
DD5B: 13               INC DE
DD5C: 16 16            LD D, 0x16
DD5E: 16 32            LD D, 0x32
DD60: 32 32 34         LD (0x3432), A
DD63: 32 32 34         LD (0x3432), A
DD66: 32 32 32         LD (0x3232), A
DD69: 32 32 32         LD (0x3232), A
DD6C: 32 32 1A         LD (0x1A32), A
DD6F: 1A               LD A, (DE)
DD70: 13               INC DE
DD71: 1A               LD A, (DE)
DD72: 1A               LD A, (DE)
DD73: 1A               LD A, (DE)
DD74: 19               ADD HL, DE
DD75: 19               ADD HL, DE
DD76: 19               ADD HL, DE
DD77: 19               ADD HL, DE
DD78: 0B               DEC BC
DD79: 0B               DEC BC
DD7A: 19               ADD HL, DE
DD7B: 19               ADD HL, DE
DD7C: 19               ADD HL, DE
DD7D: 1A               LD A, (DE)
DD7E: 1A               LD A, (DE)
DD7F: 13               INC DE
DD80: 13               INC DE
DD81: 16 16            LD D, 0x16
DD83: 16 16            LD D, 0x16
DD85: 16 16            LD D, 0x16
DD87: 13               INC DE
DD88: 13               INC DE
DD89: 13               INC DE
DD8A: 13               INC DE
DD8B: 13               INC DE
DD8C: 1A               LD A, (DE)
DD8D: 1A               LD A, (DE)
DD8E: 19               ADD HL, DE
DD8F: 19               ADD HL, DE
DD90: 0B               DEC BC
DD91: 0B               DEC BC
DD92: 0B               DEC BC
DD93: 08               EX AF, AF'
DD94: 08               EX AF, AF'
DD95: 08               EX AF, AF'
DD96: 01 01 01         LD BC, 0x0101
DD99: 01 01 01         LD BC, 0x0101
DD9C: 08               EX AF, AF'
DD9D: 08               EX AF, AF'
DD9E: 0B               DEC BC
DD9F: 19               ADD HL, DE
DDA0: 19               ADD HL, DE
DDA1: 1A               LD A, (DE)
DDA2: 1A               LD A, (DE)
DDA3: 13               INC DE
DDA4: 13               INC DE
DDA5: 1A               LD A, (DE)
DDA6: 1A               LD A, (DE)
DDA7: 1A               LD A, (DE)
DDA8: 1A               LD A, (DE)
DDA9: 19               ADD HL, DE
DDAA: 19               ADD HL, DE
DDAB: 19               ADD HL, DE
DDAC: 19               ADD HL, DE
DDAD: 19               ADD HL, DE
DDAE: 08               EX AF, AF'
DDAF: 01 01 01         LD BC, 0x0101
DDB2: 01 07 07         LD BC, 0x0707
DDB5: 07               RLCA
DDB6: 38 38            JR C, 0xDDF0
DDB8: 3D               DEC A
DDB9: 3D               DEC A
DDBA: 38 38            JR C, 0xDDF4
DDBC: 07               RLCA
DDBD: 07               RLCA
DDBE: 01 08 08         LD BC, 0x0808
DDC1: 0B               DEC BC
DDC2: 0B               DEC BC
DDC3: 19               ADD HL, DE
DDC4: 19               ADD HL, DE
DDC5: 19               ADD HL, DE
DDC6: 19               ADD HL, DE
DDC7: 0B               DEC BC
DDC8: 0B               DEC BC
DDC9: 08               EX AF, AF'
DDCA: 08               EX AF, AF'
DDCB: 08               EX AF, AF'
DDCC: 01 08 38         LD BC, 0x3808
DDCF: 38 38            JR C, 0xDE09
DDD1: 38 3D            JR C, 0xDE10
DDD3: 3D               DEC A
DDD4: 2F               CPL
DDD5: 2F               CPL
DDD6: 2F               CPL
DDD7: 2C               INC L
DDD8: 2C               INC L
DDD9: 2C               INC L
DDDA: 2C               INC L
DDDB: 2F               CPL
DDDC: 2F               CPL
DDDD: 3D               DEC A
DDDE: 38 07            JR C, 0xDDE7
DDE0: 01 01 08         LD BC, 0x0801
DDE3: 08               EX AF, AF'
DDE4: 0B               DEC BC
DDE5: 08               EX AF, AF'
DDE6: 08               EX AF, AF'
DDE7: 01 01 01         LD BC, 0x0101
DDEA: 07               RLCA
DDEB: 07               RLCA
DDEC: 07               RLCA
DDED: 38 3D            JR C, 0xDE2C
DDEF: 2F               CPL
DDF0: 2F               CPL
DDF1: 2F               CPL
DDF2: 2C               INC L
DDF3: 2C               INC L
DDF4: 25               DEC H
DDF5: 25               DEC H
DDF6: 26 26            LD H, 0x26
DDF8: 26 26            LD H, 0x26
DDFA: 26 25            LD H, 0x25
DDFC: 25               DEC H
DDFD: 2C               INC L
DDFE: 2F               CPL
DDFF: 3D               DEC A
DE00: 38 07            JR C, 0xDE09
DE02: 07               RLCA
DE03: 07               RLCA
DE04: 07               RLCA
DE05: 01 07 07         LD BC, 0x0707
DE08: 38 38            JR C, 0xDE42
DE0A: 3D               DEC A
DE0B: 3D               DEC A
DE0C: 3D               DEC A
DE0D: 3D               DEC A
DE0E: 2C               INC L
DE0F: 25               DEC H
DE10: 25               DEC H
DE11: 25               DEC H
DE12: 26 26            LD H, 0x26
DE14: 34               INC (HL)
DE15: 34               INC (HL)
DE16: 32 32 32         LD (0x3232), A
DE19: 32 32 32         LD (0x3232), A
DE1C: 34               INC (HL)
DE1D: 26 25            LD H, 0x25
DE1F: 2C               INC L
DE20: 2F               CPL
DE21: 3D               DEC A
DE22: 38 38            JR C, 0xDE5C
DE24: 38 38            JR C, 0xDE5E
DE26: 3D               DEC A
DE27: 3D               DEC A
DE28: 2F               CPL
DE29: 2F               CPL
DE2A: 2C               INC L
DE2B: 2C               INC L
DE2C: 2C               INC L
DE2D: 2C               INC L
DE2E: 34               INC (HL)
DE2F: 34               INC (HL)
DE30: 34               INC (HL)
DE31: 34               INC (HL)
DE32: 32 16 16         LD (0x1616), A
DE35: 13               INC DE
DE36: 13               INC DE
DE37: 13               INC DE
DE38: 13               INC DE
DE39: 13               INC DE
DE3A: 13               INC DE
DE3B: 16 16            LD D, 0x16
DE3D: 32 26 25         LD (0x2526), A
DE40: 2C               INC L
DE41: 2F               CPL
DE42: 2F               CPL
DE43: 2F               CPL
DE44: 2F               CPL
DE45: 2F               CPL
DE46: 2C               INC L
DE47: 2C               INC L
DE48: 2C               INC L
DE49: 25               DEC H
DE4A: 25               DEC H
DE4B: 26 26            LD H, 0x26
DE4D: 34               INC (HL)
DE4E: 32 16 16         LD (0x1616), A
DE51: 16 13            LD D, 0x13
DE53: 13               INC DE
DE54: 1A               LD A, (DE)
DE55: 1A               LD A, (DE)
DE56: 19               ADD HL, DE
DE57: 19               ADD HL, DE
DE58: 19               ADD HL, DE
DE59: 19               ADD HL, DE
DE5A: 19               ADD HL, DE
DE5B: 1A               LD A, (DE)
DE5C: 13               INC DE
DE5D: 16 32            LD D, 0x32
DE5F: 26 26            LD H, 0x26
DE61: 25               DEC H
DE62: 25               DEC H
DE63: 25               DEC H
DE64: 25               DEC H
DE65: 25               DEC H
DE66: 25               DEC H
DE67: 26 26            LD H, 0x26
DE69: 34               INC (HL)
DE6A: 34               INC (HL)
DE6B: 32 32 32         LD (0x3232), A
DE6E: 1A               LD A, (DE)
DE6F: 1A               LD A, (DE)
DE70: 1A               LD A, (DE)
DE71: 1A               LD A, (DE)
DE72: 19               ADD HL, DE
DE73: 19               ADD HL, DE
DE74: 0B               DEC BC
DE75: 0B               DEC BC
DE76: 08               EX AF, AF'
DE77: 08               EX AF, AF'
DE78: 08               EX AF, AF'
DE79: 08               EX AF, AF'
DE7A: 0B               DEC BC
DE7B: 0B               DEC BC
DE7C: 19               ADD HL, DE
DE7D: 13               INC DE
DE7E: 16 32            LD D, 0x32
DE80: 34               INC (HL)
DE81: 34               INC (HL)
DE82: 34               INC (HL)
DE83: 26 34            LD H, 0x34
DE85: 34               INC (HL)
DE86: 34               INC (HL)
DE87: 32 16 16         LD (0x1616), A
DE8A: 16 13            LD D, 0x13
DE8C: 13               INC DE
DE8D: 1A               LD A, (DE)
DE8E: 19               ADD HL, DE
DE8F: 0B               DEC BC
DE90: 0B               DEC BC
DE91: 0B               DEC BC
DE92: 08               EX AF, AF'
DE93: 08               EX AF, AF'
DE94: 01 01 07         LD BC, 0x0701
DE97: 07               RLCA
DE98: 07               RLCA
DE99: 01 01 01         LD BC, 0x0101
DE9C: 0B               DEC BC
DE9D: 19               ADD HL, DE
DE9E: 1A               LD A, (DE)
DE9F: 13               INC DE
DEA0: 16 16            LD D, 0x16
DEA2: 16 16            LD D, 0x16
DEA4: 16 16            LD D, 0x16
DEA6: 13               INC DE
DEA7: 13               INC DE
DEA8: 1A               LD A, (DE)
DEA9: 1A               LD A, (DE)
DEAA: 19               ADD HL, DE
DEAB: 19               ADD HL, DE
DEAC: 19               ADD HL, DE
DEAD: 19               ADD HL, DE
DEAE: 08               EX AF, AF'
DEAF: 01 01 01         LD BC, 0x0101
DEB2: 07               RLCA
DEB3: 07               RLCA
DEB4: 07               RLCA
DEB5: 38 38            JR C, 0xDEEF
DEB7: 38 3D            JR C, 0xDEF6
DEB9: 38 07            JR C, 0xDEC2
DEBB: 07               RLCA
DEBC: 01 08 0B         LD BC, 0x0B08
DEBF: 19               ADD HL, DE
DEC0: 19               ADD HL, DE
DEC1: 1A               LD A, (DE)
DEC2: 1A               LD A, (DE)
DEC3: 1A               LD A, (DE)
DEC4: 1A               LD A, (DE)
DEC5: 19               ADD HL, DE
DEC6: 19               ADD HL, DE
DEC7: 19               ADD HL, DE
DEC8: 0B               DEC BC
DEC9: 0B               DEC BC
DECA: 08               EX AF, AF'
DECB: 08               EX AF, AF'
DECC: 08               EX AF, AF'
DECD: 08               EX AF, AF'
DECE: 38 07            JR C, 0xDED7
DED0: 38 38            JR C, 0xDF0A
DED2: 38 3D            JR C, 0xDF11
DED4: 3D               DEC A
DED5: 2F               CPL
DED6: 2F               CPL
DED7: 2F               CPL
DED8: 2F               CPL
DED9: 2F               CPL
DEDA: 3D               DEC A
DEDB: 3D               DEC A
DEDC: 38 07            JR C, 0xDEE5
DEDE: 01 01 08         LD BC, 0x0801
DEE1: 08               EX AF, AF'
DEE2: 0B               DEC BC
DEE3: 0B               DEC BC
DEE4: 08               EX AF, AF'
DEE5: 08               EX AF, AF'
DEE6: 08               EX AF, AF'
DEE7: 01 01 07         LD BC, 0x0701
DEEA: 07               RLCA
DEEB: 07               RLCA
DEEC: 07               RLCA
DEED: 38 3D            JR C, 0xDF2C
DEEF: 3D               DEC A
DEF0: 2F               CPL
DEF1: 2F               CPL
DEF2: 2F               CPL
DEF3: 2C               INC L
DEF4: 2C               INC L
DEF5: 2C               INC L
DEF6: 25               DEC H
DEF7: 2C               INC L
DEF8: 25               DEC H
DEF9: 2C               INC L
DEFA: 2C               INC L
DEFB: 2C               INC L
DEFC: 2F               CPL
DEFD: 3D               DEC A
DEFE: 3D               DEC A
DEFF: 38 07            JR C, 0xDF08
DF01: 07               RLCA
DF02: 07               RLCA
DF03: 07               RLCA
DF04: 07               RLCA
DF05: 07               RLCA
DF06: 38 38            JR C, 0xDF40
DF08: 38 3D            JR C, 0xDF47
DF0A: 3D               DEC A
DF0B: 3D               DEC A
DF0C: 3D               DEC A
DF0D: 3D               DEC A
DF0E: 2C               INC L
DF0F: 2C               INC L
DF10: 25               DEC H
DF11: 25               DEC H
DF12: 25               DEC H
DF13: 25               DEC H
DF14: 26 26            LD H, 0x26
DF16: 26 26            LD H, 0x26
DF18: 26 26            LD H, 0x26
DF1A: 26 25            LD H, 0x25
DF1C: 25               DEC H
DF1D: 2C               INC L
DF1E: 2C               INC L
DF1F: 2F               CPL
DF20: 2F               CPL
DF21: 2F               CPL
DF22: 2F               CPL
DF23: 2F               CPL
DF24: 2F               CPL
DF25: 2F               CPL
DF26: 2F               CPL
DF27: 2F               CPL
DF28: 2C               INC L
DF29: 2C               INC L
DF2A: 2C               INC L
DF2B: 25               DEC H
DF2C: 2C               INC L
DF2D: 2C               INC L
DF2E: 34               INC (HL)
DF2F: 34               INC (HL)
DF30: 34               INC (HL)
DF31: 26 34            LD H, 0x34
DF33: 34               INC (HL)
DF34: 34               INC (HL)
DF35: 34               INC (HL)
DF36: 34               INC (HL)
DF37: 32 32 32         LD (0x3232), A
DF3A: 34               INC (HL)
DF3B: 34               INC (HL)
DF3C: 34               INC (HL)
DF3D: 26 26            LD H, 0x26
DF3F: 26 25            LD H, 0x25
DF41: 25               DEC H
DF42: 25               DEC H
DF43: 25               DEC H
DF44: 25               DEC H
DF45: 25               DEC H
DF46: 25               DEC H
DF47: 26 26            LD H, 0x26
DF49: 26 26            LD H, 0x26
DF4B: 34               INC (HL)
DF4C: 34               INC (HL)
DF4D: 34               INC (HL)
DF4E: 32 32 32         LD (0x3232), A
DF51: 32 16 16         LD (0x1616), A
DF54: 16 16            LD D, 0x16
DF56: 16 16            LD D, 0x16
DF58: 16 16            LD D, 0x16
DF5A: 16 16            LD D, 0x16
DF5C: 16 32            LD D, 0x32
DF5E: 32 32 32         LD (0x3232), A
DF61: 34               INC (HL)
DF62: 34               INC (HL)
DF63: 34               INC (HL)
DF64: 34               INC (HL)
DF65: 32 32 32         LD (0x3232), A
DF68: 32 32 32         LD (0x3232), A
DF6B: 32 32 32         LD (0x3232), A
DF6E: 1A               LD A, (DE)
DF6F: 1A               LD A, (DE)
DF70: 1A               LD A, (DE)
DF71: 1A               LD A, (DE)
DF72: 13               INC DE
DF73: 1A               LD A, (DE)
DF74: 1A               LD A, (DE)
DF75: 1A               LD A, (DE)
DF76: 1A               LD A, (DE)
DF77: 1A               LD A, (DE)
DF78: 1A               LD A, (DE)
DF79: 1A               LD A, (DE)
DF7A: 1A               LD A, (DE)
DF7B: 1A               LD A, (DE)
DF7C: 1A               LD A, (DE)
DF7D: 13               INC DE
DF7E: 13               INC DE
DF7F: 13               INC DE
DF80: 13               INC DE
DF81: 13               INC DE
DF82: 13               INC DE
DF83: 13               INC DE
DF84: 13               INC DE
DF85: 13               INC DE
DF86: 13               INC DE
DF87: 13               INC DE
DF88: 13               INC DE
DF89: 13               INC DE
DF8A: 1A               LD A, (DE)
DF8B: 1A               LD A, (DE)
DF8C: 1A               LD A, (DE)
DF8D: 1A               LD A, (DE)
DF8E: 19               ADD HL, DE
DF8F: 19               ADD HL, DE
DF90: 19               ADD HL, DE
DF91: 19               ADD HL, DE
DF92: 19               ADD HL, DE
DF93: 19               ADD HL, DE
DF94: 0B               DEC BC
DF95: 0B               DEC BC
DF96: 0B               DEC BC
DF97: 0B               DEC BC
DF98: 0B               DEC BC
DF99: 0B               DEC BC
DF9A: 0B               DEC BC
DF9B: 0B               DEC BC
DF9C: 0B               DEC BC
DF9D: 19               ADD HL, DE
DF9E: 19               ADD HL, DE
DF9F: 19               ADD HL, DE
DFA0: 19               ADD HL, DE
DFA1: 19               ADD HL, DE
DFA2: 19               ADD HL, DE
DFA3: 19               ADD HL, DE
DFA4: 19               ADD HL, DE
DFA5: 19               ADD HL, DE
DFA6: 19               ADD HL, DE
DFA7: 19               ADD HL, DE
DFA8: 19               ADD HL, DE
DFA9: 19               ADD HL, DE
DFAA: 19               ADD HL, DE
DFAB: 19               ADD HL, DE
DFAC: 19               ADD HL, DE
DFAD: 19               ADD HL, DE
DFAE: 08               EX AF, AF'
DFAF: 08               EX AF, AF'
DFB0: 08               EX AF, AF'
DFB1: 08               EX AF, AF'
DFB2: 08               EX AF, AF'
DFB3: 08               EX AF, AF'
DFB4: 08               EX AF, AF'
DFB5: 01 01 01         LD BC, 0x0101
DFB8: 01 01 01         LD BC, 0x0101
DFBB: 01 01 08         LD BC, 0x0801
DFBE: 01 01 08         LD BC, 0x0801
DFC1: 08               EX AF, AF'
DFC2: 08               EX AF, AF'
DFC3: 08               EX AF, AF'
DFC4: 08               EX AF, AF'
DFC5: 08               EX AF, AF'
DFC6: 01 08 08         LD BC, 0x0808
DFC9: 08               EX AF, AF'
DFCA: 08               EX AF, AF'
DFCB: 08               EX AF, AF'
DFCC: 08               EX AF, AF'
DFCD: 08               EX AF, AF'

; === End of Disassembly ===
